
awesomesauce.elf:     file format elf32-littlearm


Disassembly of section .text:

08000000 <vector_table>:
 8000000:	00 50 00 20 5d 05 00 08 59 05 00 08 57 05 00 08     .P. ]...Y...W...
 8000010:	57 05 00 08 57 05 00 08 57 05 00 08 00 00 00 00     W...W...W.......
	...
 800002c:	59 05 00 08 59 05 00 08 00 00 00 00 59 05 00 08     Y...Y.......Y...
 800003c:	59 05 00 08 57 05 00 08 57 05 00 08 57 05 00 08     Y...W...W...W...
 800004c:	57 05 00 08 57 05 00 08 57 05 00 08 57 05 00 08     W...W...W...W...
 800005c:	57 05 00 08 57 05 00 08 57 05 00 08 57 05 00 08     W...W...W...W...
 800006c:	57 05 00 08 57 05 00 08 57 05 00 08 57 05 00 08     W...W...W...W...
 800007c:	57 05 00 08 57 05 00 08 57 05 00 08 57 05 00 08     W...W...W...W...
 800008c:	57 05 00 08 57 05 00 08 57 05 00 08 57 05 00 08     W...W...W...W...
 800009c:	57 05 00 08 57 05 00 08 57 05 00 08 57 05 00 08     W...W...W...W...
 80000ac:	57 05 00 08 57 05 00 08 57 05 00 08 57 05 00 08     W...W...W...W...
 80000bc:	57 05 00 08 57 05 00 08 57 05 00 08 57 05 00 08     W...W...W...W...
 80000cc:	57 05 00 08 57 05 00 08 57 05 00 08 57 05 00 08     W...W...W...W...
 80000dc:	57 05 00 08 57 05 00 08 57 05 00 08 57 05 00 08     W...W...W...W...
 80000ec:	57 05 00 08 57 05 00 08 57 05 00 08 57 05 00 08     W...W...W...W...
 80000fc:	57 05 00 08 57 05 00 08 57 05 00 08 57 05 00 08     W...W...W...W...
 800010c:	57 05 00 08 57 05 00 08 57 05 00 08 57 05 00 08     W...W...W...W...
 800011c:	57 05 00 08 57 05 00 08 57 05 00 08 57 05 00 08     W...W...W...W...
 800012c:	57 05 00 08 57 05 00 08 57 05 00 08 57 05 00 08     W...W...W...W...
 800013c:	57 05 00 08 57 05 00 08 57 05 00 08 57 05 00 08     W...W...W...W...
 800014c:	57 05 00 08                                         W...

08000150 <_iord>:
 8000150:	2000      	movs	r0, #0
 8000152:	4770      	bx	lr

08000154 <_iowr>:
 8000154:	b5f8      	push	{r3, r4, r5, r6, r7, lr}
 8000156:	4606      	mov	r6, r0
 8000158:	460c      	mov	r4, r1
 800015a:	4615      	mov	r5, r2
 800015c:	188f      	adds	r7, r1, r2
 800015e:	42bc      	cmp	r4, r7
 8000160:	d101      	bne.n	8000166 <_iowr+0x12>
 8000162:	4628      	mov	r0, r5
 8000164:	bdf8      	pop	{r3, r4, r5, r6, r7, pc}
 8000166:	4630      	mov	r0, r6
 8000168:	f814 1b01 	ldrb.w	r1, [r4], #1
 800016c:	f000 f9e0 	bl	8000530 <usart_send_blocking>
 8000170:	e7f5      	b.n	800015e <_iowr+0xa>
	...

08000174 <main>:
 8000174:	b510      	push	{r4, lr}
 8000176:	b086      	sub	sp, #24
 8000178:	f000 f94c 	bl	8000414 <rcc_clock_setup_in_hse_8mhz_out_72mhz>
 800017c:	f240 3002 	movw	r0, #770	; 0x302
 8000180:	f000 f98e 	bl	80004a0 <rcc_periph_clock_enable>
 8000184:	f240 3003 	movw	r0, #771	; 0x303
 8000188:	f000 f98a 	bl	80004a0 <rcc_periph_clock_enable>
 800018c:	f44f 7040 	mov.w	r0, #768	; 0x300
 8000190:	f000 f986 	bl	80004a0 <rcc_periph_clock_enable>
 8000194:	f240 300e 	movw	r0, #782	; 0x30e
 8000198:	f000 f982 	bl	80004a0 <rcc_periph_clock_enable>
 800019c:	f44f 7043 	mov.w	r0, #780	; 0x30c
 80001a0:	f000 f97e 	bl	80004a0 <rcc_periph_clock_enable>
 80001a4:	f44f 7300 	mov.w	r3, #512	; 0x200
 80001a8:	2202      	movs	r2, #2
 80001aa:	2103      	movs	r1, #3
 80001ac:	4820      	ldr	r0, [pc, #128]	; (8000230 <main+0xbc>)
 80001ae:	f000 f849 	bl	8000244 <gpio_set_mode>
 80001b2:	f44f 6380 	mov.w	r3, #1024	; 0x400
 80001b6:	2201      	movs	r2, #1
 80001b8:	2100      	movs	r1, #0
 80001ba:	481d      	ldr	r0, [pc, #116]	; (8000230 <main+0xbc>)
 80001bc:	f000 f842 	bl	8000244 <gpio_set_mode>
 80001c0:	f44f 31e1 	mov.w	r1, #115200	; 0x1c200
 80001c4:	481b      	ldr	r0, [pc, #108]	; (8000234 <main+0xc0>)
 80001c6:	f000 f979 	bl	80004bc <usart_set_baudrate>
 80001ca:	2108      	movs	r1, #8
 80001cc:	4819      	ldr	r0, [pc, #100]	; (8000234 <main+0xc0>)
 80001ce:	f000 f989 	bl	80004e4 <usart_set_databits>
 80001d2:	2100      	movs	r1, #0
 80001d4:	4817      	ldr	r0, [pc, #92]	; (8000234 <main+0xc0>)
 80001d6:	f000 f98e 	bl	80004f6 <usart_set_stopbits>
 80001da:	2100      	movs	r1, #0
 80001dc:	4815      	ldr	r0, [pc, #84]	; (8000234 <main+0xc0>)
 80001de:	f000 f990 	bl	8000502 <usart_set_parity>
 80001e2:	2100      	movs	r1, #0
 80001e4:	4813      	ldr	r0, [pc, #76]	; (8000234 <main+0xc0>)
 80001e6:	f000 f998 	bl	800051a <usart_set_flow_control>
 80001ea:	210c      	movs	r1, #12
 80001ec:	4811      	ldr	r0, [pc, #68]	; (8000234 <main+0xc0>)
 80001ee:	f000 f98e 	bl	800050e <usart_set_mode>
 80001f2:	4810      	ldr	r0, [pc, #64]	; (8000234 <main+0xc0>)
 80001f4:	f000 f997 	bl	8000526 <usart_enable>
 80001f8:	4b0f      	ldr	r3, [pc, #60]	; (8000238 <main+0xc4>)
 80001fa:	ac02      	add	r4, sp, #8
 80001fc:	cb0f      	ldmia	r3, {r0, r1, r2, r3}
 80001fe:	e884 000f 	stmia.w	r4, {r0, r1, r2, r3}
 8000202:	ab06      	add	r3, sp, #24
 8000204:	e913 0003 	ldmdb	r3, {r0, r1}
 8000208:	e88d 0003 	stmia.w	sp, {r0, r1}
 800020c:	490b      	ldr	r1, [pc, #44]	; (800023c <main+0xc8>)
 800020e:	e894 000c 	ldmia.w	r4, {r2, r3}
 8000212:	4808      	ldr	r0, [pc, #32]	; (8000234 <main+0xc0>)
 8000214:	f000 fac8 	bl	80007a8 <fopencookie>
 8000218:	2300      	movs	r3, #0
 800021a:	4604      	mov	r4, r0
 800021c:	4619      	mov	r1, r3
 800021e:	2202      	movs	r2, #2
 8000220:	f000 fbe4 	bl	80009ec <setvbuf>
 8000224:	4621      	mov	r1, r4
 8000226:	4806      	ldr	r0, [pc, #24]	; (8000240 <main+0xcc>)
 8000228:	f000 fb22 	bl	8000870 <fputs>
 800022c:	e7fe      	b.n	800022c <main+0xb8>
 800022e:	bf00      	nop
 8000230:	40010800 	.word	0x40010800
 8000234:	40013800 	.word	0x40013800
 8000238:	08001304 	.word	0x08001304
 800023c:	080012f4 	.word	0x080012f4
 8000240:	080012f8 	.word	0x080012f8

08000244 <gpio_set_mode>:
 8000244:	e92d 41f0 	stmdb	sp!, {r4, r5, r6, r7, r8, lr}
 8000248:	f04f 0c0f 	mov.w	ip, #15
 800024c:	2500      	movs	r5, #0
 800024e:	6807      	ldr	r7, [r0, #0]
 8000250:	6846      	ldr	r6, [r0, #4]
 8000252:	fa43 f405 	asr.w	r4, r3, r5
 8000256:	07e4      	lsls	r4, r4, #31
 8000258:	d51c      	bpl.n	8000294 <gpio_set_mode+0x50>
 800025a:	2d07      	cmp	r5, #7
 800025c:	bf94      	ite	ls
 800025e:	46be      	movls	lr, r7
 8000260:	46b6      	movhi	lr, r6
 8000262:	b2ac      	uxth	r4, r5
 8000264:	ea4f 0484 	mov.w	r4, r4, lsl #2
 8000268:	bf8a      	itet	hi
 800026a:	3c20      	subhi	r4, #32
 800026c:	b2a4      	uxthls	r4, r4
 800026e:	b2a4      	uxthhi	r4, r4
 8000270:	fa0c f804 	lsl.w	r8, ip, r4
 8000274:	ea2e 0808 	bic.w	r8, lr, r8
 8000278:	f104 0e02 	add.w	lr, r4, #2
 800027c:	fa02 fe0e 	lsl.w	lr, r2, lr
 8000280:	fa01 f404 	lsl.w	r4, r1, r4
 8000284:	ea4e 0404 	orr.w	r4, lr, r4
 8000288:	ea44 0408 	orr.w	r4, r4, r8
 800028c:	2d07      	cmp	r5, #7
 800028e:	bf94      	ite	ls
 8000290:	4627      	movls	r7, r4
 8000292:	4626      	movhi	r6, r4
 8000294:	3501      	adds	r5, #1
 8000296:	2d10      	cmp	r5, #16
 8000298:	d1db      	bne.n	8000252 <gpio_set_mode+0xe>
 800029a:	6007      	str	r7, [r0, #0]
 800029c:	6046      	str	r6, [r0, #4]
 800029e:	e8bd 81f0 	ldmia.w	sp!, {r4, r5, r6, r7, r8, pc}
	...

080002a4 <rcc_osc_on.part.0>:
 80002a4:	4a02      	ldr	r2, [pc, #8]	; (80002b0 <rcc_osc_on.part.0+0xc>)
 80002a6:	6813      	ldr	r3, [r2, #0]
 80002a8:	f043 7380 	orr.w	r3, r3, #16777216	; 0x1000000
 80002ac:	6013      	str	r3, [r2, #0]
 80002ae:	4770      	bx	lr
 80002b0:	40021000 	.word	0x40021000

080002b4 <rcc_is_osc_ready>:
 80002b4:	2806      	cmp	r0, #6
 80002b6:	d822      	bhi.n	80002fe <rcc_is_osc_ready+0x4a>
 80002b8:	e8df f000 	tbb	[pc, r0]
 80002bc:	130e0904 	.word	0x130e0904
 80002c0:	1d18      	.short	0x1d18
 80002c2:	1f          	.byte	0x1f
 80002c3:	00          	.byte	0x00
 80002c4:	4b0f      	ldr	r3, [pc, #60]	; (8000304 <rcc_is_osc_ready+0x50>)
 80002c6:	6818      	ldr	r0, [r3, #0]
 80002c8:	f3c0 6040 	ubfx	r0, r0, #25, #1
 80002cc:	4770      	bx	lr
 80002ce:	4b0d      	ldr	r3, [pc, #52]	; (8000304 <rcc_is_osc_ready+0x50>)
 80002d0:	6818      	ldr	r0, [r3, #0]
 80002d2:	f3c0 60c0 	ubfx	r0, r0, #27, #1
 80002d6:	4770      	bx	lr
 80002d8:	4b0a      	ldr	r3, [pc, #40]	; (8000304 <rcc_is_osc_ready+0x50>)
 80002da:	6818      	ldr	r0, [r3, #0]
 80002dc:	f3c0 7040 	ubfx	r0, r0, #29, #1
 80002e0:	4770      	bx	lr
 80002e2:	4b08      	ldr	r3, [pc, #32]	; (8000304 <rcc_is_osc_ready+0x50>)
 80002e4:	6818      	ldr	r0, [r3, #0]
 80002e6:	f3c0 4040 	ubfx	r0, r0, #17, #1
 80002ea:	4770      	bx	lr
 80002ec:	4b05      	ldr	r3, [pc, #20]	; (8000304 <rcc_is_osc_ready+0x50>)
 80002ee:	6818      	ldr	r0, [r3, #0]
 80002f0:	f3c0 0040 	ubfx	r0, r0, #1, #1
 80002f4:	4770      	bx	lr
 80002f6:	4b04      	ldr	r3, [pc, #16]	; (8000308 <rcc_is_osc_ready+0x54>)
 80002f8:	e7f9      	b.n	80002ee <rcc_is_osc_ready+0x3a>
 80002fa:	4b04      	ldr	r3, [pc, #16]	; (800030c <rcc_is_osc_ready+0x58>)
 80002fc:	e7f7      	b.n	80002ee <rcc_is_osc_ready+0x3a>
 80002fe:	2000      	movs	r0, #0
 8000300:	4770      	bx	lr
 8000302:	bf00      	nop
 8000304:	40021000 	.word	0x40021000
 8000308:	40021020 	.word	0x40021020
 800030c:	40021024 	.word	0x40021024

08000310 <rcc_wait_for_osc_ready>:
 8000310:	4602      	mov	r2, r0
 8000312:	b508      	push	{r3, lr}
 8000314:	4610      	mov	r0, r2
 8000316:	f7ff ffcd 	bl	80002b4 <rcc_is_osc_ready>
 800031a:	2800      	cmp	r0, #0
 800031c:	d0fa      	beq.n	8000314 <rcc_wait_for_osc_ready+0x4>
 800031e:	bd08      	pop	{r3, pc}

08000320 <rcc_osc_on>:
 8000320:	2806      	cmp	r0, #6
 8000322:	d80c      	bhi.n	800033e <rcc_osc_on+0x1e>
 8000324:	e8df f000 	tbb	[pc, r0]
 8000328:	110c0604 	.word	0x110c0604
 800032c:	1b16      	.short	0x1b16
 800032e:	1d          	.byte	0x1d
 800032f:	00          	.byte	0x00
 8000330:	f7ff bfb8 	b.w	80002a4 <rcc_osc_on.part.0>
 8000334:	4a0c      	ldr	r2, [pc, #48]	; (8000368 <rcc_osc_on+0x48>)
 8000336:	6813      	ldr	r3, [r2, #0]
 8000338:	f043 6380 	orr.w	r3, r3, #67108864	; 0x4000000
 800033c:	6013      	str	r3, [r2, #0]
 800033e:	4770      	bx	lr
 8000340:	4a09      	ldr	r2, [pc, #36]	; (8000368 <rcc_osc_on+0x48>)
 8000342:	6813      	ldr	r3, [r2, #0]
 8000344:	f043 5380 	orr.w	r3, r3, #268435456	; 0x10000000
 8000348:	e7f8      	b.n	800033c <rcc_osc_on+0x1c>
 800034a:	4a07      	ldr	r2, [pc, #28]	; (8000368 <rcc_osc_on+0x48>)
 800034c:	6813      	ldr	r3, [r2, #0]
 800034e:	f443 3380 	orr.w	r3, r3, #65536	; 0x10000
 8000352:	e7f3      	b.n	800033c <rcc_osc_on+0x1c>
 8000354:	4a04      	ldr	r2, [pc, #16]	; (8000368 <rcc_osc_on+0x48>)
 8000356:	6813      	ldr	r3, [r2, #0]
 8000358:	f043 0301 	orr.w	r3, r3, #1
 800035c:	e7ee      	b.n	800033c <rcc_osc_on+0x1c>
 800035e:	4a03      	ldr	r2, [pc, #12]	; (800036c <rcc_osc_on+0x4c>)
 8000360:	e7f9      	b.n	8000356 <rcc_osc_on+0x36>
 8000362:	4a03      	ldr	r2, [pc, #12]	; (8000370 <rcc_osc_on+0x50>)
 8000364:	e7f7      	b.n	8000356 <rcc_osc_on+0x36>
 8000366:	bf00      	nop
 8000368:	40021000 	.word	0x40021000
 800036c:	40021020 	.word	0x40021020
 8000370:	40021024 	.word	0x40021024

08000374 <rcc_set_sysclk_source>:
 8000374:	4a03      	ldr	r2, [pc, #12]	; (8000384 <rcc_set_sysclk_source+0x10>)
 8000376:	6813      	ldr	r3, [r2, #0]
 8000378:	f023 0303 	bic.w	r3, r3, #3
 800037c:	4303      	orrs	r3, r0
 800037e:	6013      	str	r3, [r2, #0]
 8000380:	4770      	bx	lr
 8000382:	bf00      	nop
 8000384:	40021004 	.word	0x40021004

08000388 <rcc_set_pll_multiplication_factor>:
 8000388:	4a03      	ldr	r2, [pc, #12]	; (8000398 <rcc_set_pll_multiplication_factor+0x10>)
 800038a:	6813      	ldr	r3, [r2, #0]
 800038c:	f423 1370 	bic.w	r3, r3, #3932160	; 0x3c0000
 8000390:	ea43 4380 	orr.w	r3, r3, r0, lsl #18
 8000394:	6013      	str	r3, [r2, #0]
 8000396:	4770      	bx	lr
 8000398:	40021004 	.word	0x40021004

0800039c <rcc_set_pll_source>:
 800039c:	4a03      	ldr	r2, [pc, #12]	; (80003ac <rcc_set_pll_source+0x10>)
 800039e:	6813      	ldr	r3, [r2, #0]
 80003a0:	f423 3380 	bic.w	r3, r3, #65536	; 0x10000
 80003a4:	ea43 4300 	orr.w	r3, r3, r0, lsl #16
 80003a8:	6013      	str	r3, [r2, #0]
 80003aa:	4770      	bx	lr
 80003ac:	40021004 	.word	0x40021004

080003b0 <rcc_set_pllxtpre>:
 80003b0:	4a03      	ldr	r2, [pc, #12]	; (80003c0 <rcc_set_pllxtpre+0x10>)
 80003b2:	6813      	ldr	r3, [r2, #0]
 80003b4:	f423 3300 	bic.w	r3, r3, #131072	; 0x20000
 80003b8:	ea43 4340 	orr.w	r3, r3, r0, lsl #17
 80003bc:	6013      	str	r3, [r2, #0]
 80003be:	4770      	bx	lr
 80003c0:	40021004 	.word	0x40021004

080003c4 <rcc_set_adcpre>:
 80003c4:	4a03      	ldr	r2, [pc, #12]	; (80003d4 <rcc_set_adcpre+0x10>)
 80003c6:	6813      	ldr	r3, [r2, #0]
 80003c8:	f423 4340 	bic.w	r3, r3, #49152	; 0xc000
 80003cc:	ea43 3380 	orr.w	r3, r3, r0, lsl #14
 80003d0:	6013      	str	r3, [r2, #0]
 80003d2:	4770      	bx	lr
 80003d4:	40021004 	.word	0x40021004

080003d8 <rcc_set_ppre2>:
 80003d8:	4a03      	ldr	r2, [pc, #12]	; (80003e8 <rcc_set_ppre2+0x10>)
 80003da:	6813      	ldr	r3, [r2, #0]
 80003dc:	f423 5360 	bic.w	r3, r3, #14336	; 0x3800
 80003e0:	ea43 23c0 	orr.w	r3, r3, r0, lsl #11
 80003e4:	6013      	str	r3, [r2, #0]
 80003e6:	4770      	bx	lr
 80003e8:	40021004 	.word	0x40021004

080003ec <rcc_set_ppre1>:
 80003ec:	4a03      	ldr	r2, [pc, #12]	; (80003fc <rcc_set_ppre1+0x10>)
 80003ee:	6813      	ldr	r3, [r2, #0]
 80003f0:	f423 63e0 	bic.w	r3, r3, #1792	; 0x700
 80003f4:	ea43 2300 	orr.w	r3, r3, r0, lsl #8
 80003f8:	6013      	str	r3, [r2, #0]
 80003fa:	4770      	bx	lr
 80003fc:	40021004 	.word	0x40021004

08000400 <rcc_set_hpre>:
 8000400:	4a03      	ldr	r2, [pc, #12]	; (8000410 <rcc_set_hpre+0x10>)
 8000402:	6813      	ldr	r3, [r2, #0]
 8000404:	f023 03f0 	bic.w	r3, r3, #240	; 0xf0
 8000408:	ea43 1300 	orr.w	r3, r3, r0, lsl #4
 800040c:	6013      	str	r3, [r2, #0]
 800040e:	4770      	bx	lr
 8000410:	40021004 	.word	0x40021004

08000414 <rcc_clock_setup_in_hse_8mhz_out_72mhz>:
 8000414:	b508      	push	{r3, lr}
 8000416:	2004      	movs	r0, #4
 8000418:	f7ff ff82 	bl	8000320 <rcc_osc_on>
 800041c:	2004      	movs	r0, #4
 800041e:	f7ff ff77 	bl	8000310 <rcc_wait_for_osc_ready>
 8000422:	2000      	movs	r0, #0
 8000424:	f7ff ffa6 	bl	8000374 <rcc_set_sysclk_source>
 8000428:	2003      	movs	r0, #3
 800042a:	f7ff ff79 	bl	8000320 <rcc_osc_on>
 800042e:	2003      	movs	r0, #3
 8000430:	f7ff ff6e 	bl	8000310 <rcc_wait_for_osc_ready>
 8000434:	2001      	movs	r0, #1
 8000436:	f7ff ff9d 	bl	8000374 <rcc_set_sysclk_source>
 800043a:	2000      	movs	r0, #0
 800043c:	f7ff ffe0 	bl	8000400 <rcc_set_hpre>
 8000440:	2003      	movs	r0, #3
 8000442:	f7ff ffbf 	bl	80003c4 <rcc_set_adcpre>
 8000446:	2004      	movs	r0, #4
 8000448:	f7ff ffd0 	bl	80003ec <rcc_set_ppre1>
 800044c:	2000      	movs	r0, #0
 800044e:	f7ff ffc3 	bl	80003d8 <rcc_set_ppre2>
 8000452:	2002      	movs	r0, #2
 8000454:	f000 f8ca 	bl	80005ec <flash_set_ws>
 8000458:	2007      	movs	r0, #7
 800045a:	f7ff ff95 	bl	8000388 <rcc_set_pll_multiplication_factor>
 800045e:	2001      	movs	r0, #1
 8000460:	f7ff ff9c 	bl	800039c <rcc_set_pll_source>
 8000464:	2000      	movs	r0, #0
 8000466:	f7ff ffa3 	bl	80003b0 <rcc_set_pllxtpre>
 800046a:	f7ff ff1b 	bl	80002a4 <rcc_osc_on.part.0>
 800046e:	2000      	movs	r0, #0
 8000470:	f7ff ff4e 	bl	8000310 <rcc_wait_for_osc_ready>
 8000474:	2002      	movs	r0, #2
 8000476:	f7ff ff7d 	bl	8000374 <rcc_set_sysclk_source>
 800047a:	4b04      	ldr	r3, [pc, #16]	; (800048c <rcc_clock_setup_in_hse_8mhz_out_72mhz+0x78>)
 800047c:	4a04      	ldr	r2, [pc, #16]	; (8000490 <rcc_clock_setup_in_hse_8mhz_out_72mhz+0x7c>)
 800047e:	4905      	ldr	r1, [pc, #20]	; (8000494 <rcc_clock_setup_in_hse_8mhz_out_72mhz+0x80>)
 8000480:	6013      	str	r3, [r2, #0]
 8000482:	4a05      	ldr	r2, [pc, #20]	; (8000498 <rcc_clock_setup_in_hse_8mhz_out_72mhz+0x84>)
 8000484:	6011      	str	r1, [r2, #0]
 8000486:	4a05      	ldr	r2, [pc, #20]	; (800049c <rcc_clock_setup_in_hse_8mhz_out_72mhz+0x88>)
 8000488:	6013      	str	r3, [r2, #0]
 800048a:	bd08      	pop	{r3, pc}
 800048c:	044aa200 	.word	0x044aa200
 8000490:	20000000 	.word	0x20000000
 8000494:	02255100 	.word	0x02255100
 8000498:	20000004 	.word	0x20000004
 800049c:	20000008 	.word	0x20000008

080004a0 <rcc_periph_clock_enable>:
 80004a0:	2201      	movs	r2, #1
 80004a2:	0943      	lsrs	r3, r0, #5
 80004a4:	f103 4380 	add.w	r3, r3, #1073741824	; 0x40000000
 80004a8:	f503 3304 	add.w	r3, r3, #135168	; 0x21000
 80004ac:	6819      	ldr	r1, [r3, #0]
 80004ae:	f000 001f 	and.w	r0, r0, #31
 80004b2:	fa02 f000 	lsl.w	r0, r2, r0
 80004b6:	4308      	orrs	r0, r1
 80004b8:	6018      	str	r0, [r3, #0]
 80004ba:	4770      	bx	lr

080004bc <usart_set_baudrate>:
 80004bc:	4a06      	ldr	r2, [pc, #24]	; (80004d8 <usart_set_baudrate+0x1c>)
 80004be:	4b07      	ldr	r3, [pc, #28]	; (80004dc <usart_set_baudrate+0x20>)
 80004c0:	4290      	cmp	r0, r2
 80004c2:	681b      	ldr	r3, [r3, #0]
 80004c4:	bf04      	itt	eq
 80004c6:	4b06      	ldreq	r3, [pc, #24]	; (80004e0 <usart_set_baudrate+0x24>)
 80004c8:	681b      	ldreq	r3, [r3, #0]
 80004ca:	eb03 0351 	add.w	r3, r3, r1, lsr #1
 80004ce:	fbb3 f1f1 	udiv	r1, r3, r1
 80004d2:	6081      	str	r1, [r0, #8]
 80004d4:	4770      	bx	lr
 80004d6:	bf00      	nop
 80004d8:	40013800 	.word	0x40013800
 80004dc:	20000004 	.word	0x20000004
 80004e0:	20000008 	.word	0x20000008

080004e4 <usart_set_databits>:
 80004e4:	68c3      	ldr	r3, [r0, #12]
 80004e6:	2908      	cmp	r1, #8
 80004e8:	bf0c      	ite	eq
 80004ea:	f423 5380 	biceq.w	r3, r3, #4096	; 0x1000
 80004ee:	f443 5380 	orrne.w	r3, r3, #4096	; 0x1000
 80004f2:	60c3      	str	r3, [r0, #12]
 80004f4:	4770      	bx	lr

080004f6 <usart_set_stopbits>:
 80004f6:	6903      	ldr	r3, [r0, #16]
 80004f8:	f423 5340 	bic.w	r3, r3, #12288	; 0x3000
 80004fc:	430b      	orrs	r3, r1
 80004fe:	6103      	str	r3, [r0, #16]
 8000500:	4770      	bx	lr

08000502 <usart_set_parity>:
 8000502:	68c3      	ldr	r3, [r0, #12]
 8000504:	f423 63c0 	bic.w	r3, r3, #1536	; 0x600
 8000508:	430b      	orrs	r3, r1
 800050a:	60c3      	str	r3, [r0, #12]
 800050c:	4770      	bx	lr

0800050e <usart_set_mode>:
 800050e:	68c3      	ldr	r3, [r0, #12]
 8000510:	f023 030c 	bic.w	r3, r3, #12
 8000514:	430b      	orrs	r3, r1
 8000516:	60c3      	str	r3, [r0, #12]
 8000518:	4770      	bx	lr

0800051a <usart_set_flow_control>:
 800051a:	6943      	ldr	r3, [r0, #20]
 800051c:	f423 7340 	bic.w	r3, r3, #768	; 0x300
 8000520:	430b      	orrs	r3, r1
 8000522:	6143      	str	r3, [r0, #20]
 8000524:	4770      	bx	lr

08000526 <usart_enable>:
 8000526:	68c3      	ldr	r3, [r0, #12]
 8000528:	f443 5300 	orr.w	r3, r3, #8192	; 0x2000
 800052c:	60c3      	str	r3, [r0, #12]
 800052e:	4770      	bx	lr

08000530 <usart_send_blocking>:
 8000530:	b538      	push	{r3, r4, r5, lr}
 8000532:	4604      	mov	r4, r0
 8000534:	460d      	mov	r5, r1
 8000536:	f000 f80a 	bl	800054e <usart_wait_send_ready>
 800053a:	4629      	mov	r1, r5
 800053c:	4620      	mov	r0, r4
 800053e:	e8bd 4038 	ldmia.w	sp!, {r3, r4, r5, lr}
 8000542:	f000 b800 	b.w	8000546 <usart_send>

08000546 <usart_send>:
 8000546:	f3c1 0108 	ubfx	r1, r1, #0, #9
 800054a:	6041      	str	r1, [r0, #4]
 800054c:	4770      	bx	lr

0800054e <usart_wait_send_ready>:
 800054e:	6803      	ldr	r3, [r0, #0]
 8000550:	061b      	lsls	r3, r3, #24
 8000552:	d5fc      	bpl.n	800054e <usart_wait_send_ready>
 8000554:	4770      	bx	lr

08000556 <blocking_handler>:
 8000556:	e7fe      	b.n	8000556 <blocking_handler>

08000558 <null_handler>:
 8000558:	4770      	bx	lr
	...

0800055c <reset_handler>:
 800055c:	b538      	push	{r3, r4, r5, lr}
 800055e:	4a18      	ldr	r2, [pc, #96]	; (80005c0 <reset_handler+0x64>)
 8000560:	4b18      	ldr	r3, [pc, #96]	; (80005c4 <reset_handler+0x68>)
 8000562:	4919      	ldr	r1, [pc, #100]	; (80005c8 <reset_handler+0x6c>)
 8000564:	428b      	cmp	r3, r1
 8000566:	d317      	bcc.n	8000598 <reset_handler+0x3c>
 8000568:	2100      	movs	r1, #0
 800056a:	4a18      	ldr	r2, [pc, #96]	; (80005cc <reset_handler+0x70>)
 800056c:	4293      	cmp	r3, r2
 800056e:	d318      	bcc.n	80005a2 <reset_handler+0x46>
 8000570:	4a17      	ldr	r2, [pc, #92]	; (80005d0 <reset_handler+0x74>)
 8000572:	4c18      	ldr	r4, [pc, #96]	; (80005d4 <reset_handler+0x78>)
 8000574:	6813      	ldr	r3, [r2, #0]
 8000576:	4d18      	ldr	r5, [pc, #96]	; (80005d8 <reset_handler+0x7c>)
 8000578:	f443 7300 	orr.w	r3, r3, #512	; 0x200
 800057c:	6013      	str	r3, [r2, #0]
 800057e:	42ac      	cmp	r4, r5
 8000580:	d312      	bcc.n	80005a8 <reset_handler+0x4c>
 8000582:	4c16      	ldr	r4, [pc, #88]	; (80005dc <reset_handler+0x80>)
 8000584:	4d16      	ldr	r5, [pc, #88]	; (80005e0 <reset_handler+0x84>)
 8000586:	42ac      	cmp	r4, r5
 8000588:	d312      	bcc.n	80005b0 <reset_handler+0x54>
 800058a:	f7ff fdf3 	bl	8000174 <main>
 800058e:	4c15      	ldr	r4, [pc, #84]	; (80005e4 <reset_handler+0x88>)
 8000590:	4d15      	ldr	r5, [pc, #84]	; (80005e8 <reset_handler+0x8c>)
 8000592:	42ac      	cmp	r4, r5
 8000594:	d310      	bcc.n	80005b8 <reset_handler+0x5c>
 8000596:	bd38      	pop	{r3, r4, r5, pc}
 8000598:	f852 0b04 	ldr.w	r0, [r2], #4
 800059c:	f843 0b04 	str.w	r0, [r3], #4
 80005a0:	e7e0      	b.n	8000564 <reset_handler+0x8>
 80005a2:	f843 1b04 	str.w	r1, [r3], #4
 80005a6:	e7e1      	b.n	800056c <reset_handler+0x10>
 80005a8:	f854 3b04 	ldr.w	r3, [r4], #4
 80005ac:	4798      	blx	r3
 80005ae:	e7e6      	b.n	800057e <reset_handler+0x22>
 80005b0:	f854 3b04 	ldr.w	r3, [r4], #4
 80005b4:	4798      	blx	r3
 80005b6:	e7e6      	b.n	8000586 <reset_handler+0x2a>
 80005b8:	f854 3b04 	ldr.w	r3, [r4], #4
 80005bc:	4798      	blx	r3
 80005be:	e7e8      	b.n	8000592 <reset_handler+0x36>
 80005c0:	08001378 	.word	0x08001378
 80005c4:	20000000 	.word	0x20000000
 80005c8:	20000070 	.word	0x20000070
 80005cc:	20000080 	.word	0x20000080
 80005d0:	e000ed14 	.word	0xe000ed14
 80005d4:	08001378 	.word	0x08001378
 80005d8:	08001378 	.word	0x08001378
 80005dc:	08001378 	.word	0x08001378
 80005e0:	08001378 	.word	0x08001378
 80005e4:	08001378 	.word	0x08001378
 80005e8:	08001378 	.word	0x08001378

080005ec <flash_set_ws>:
 80005ec:	4a03      	ldr	r2, [pc, #12]	; (80005fc <flash_set_ws+0x10>)
 80005ee:	6813      	ldr	r3, [r2, #0]
 80005f0:	f023 0307 	bic.w	r3, r3, #7
 80005f4:	4303      	orrs	r3, r0
 80005f6:	6013      	str	r3, [r2, #0]
 80005f8:	4770      	bx	lr
 80005fa:	bf00      	nop
 80005fc:	40022000 	.word	0x40022000

08000600 <fccloser>:
 8000600:	b570      	push	{r4, r5, r6, lr}
 8000602:	694c      	ldr	r4, [r1, #20]
 8000604:	4606      	mov	r6, r0
 8000606:	460d      	mov	r5, r1
 8000608:	b184      	cbz	r4, 800062c <fccloser+0x2c>
 800060a:	f000 fb59 	bl	8000cc0 <__errno>
 800060e:	2300      	movs	r3, #0
 8000610:	6003      	str	r3, [r0, #0]
 8000612:	696b      	ldr	r3, [r5, #20]
 8000614:	6828      	ldr	r0, [r5, #0]
 8000616:	4798      	blx	r3
 8000618:	1e04      	subs	r4, r0, #0
 800061a:	da07      	bge.n	800062c <fccloser+0x2c>
 800061c:	f000 fb50 	bl	8000cc0 <__errno>
 8000620:	6803      	ldr	r3, [r0, #0]
 8000622:	b11b      	cbz	r3, 800062c <fccloser+0x2c>
 8000624:	f000 fb4c 	bl	8000cc0 <__errno>
 8000628:	6803      	ldr	r3, [r0, #0]
 800062a:	6033      	str	r3, [r6, #0]
 800062c:	4630      	mov	r0, r6
 800062e:	4629      	mov	r1, r5
 8000630:	f000 f926 	bl	8000880 <_free_r>
 8000634:	4620      	mov	r0, r4
 8000636:	bd70      	pop	{r4, r5, r6, pc}

08000638 <fcwriter>:
 8000638:	e92d 41f0 	stmdb	sp!, {r4, r5, r6, r7, r8, lr}
 800063c:	461f      	mov	r7, r3
 800063e:	684b      	ldr	r3, [r1, #4]
 8000640:	4616      	mov	r6, r2
 8000642:	899a      	ldrh	r2, [r3, #12]
 8000644:	4605      	mov	r5, r0
 8000646:	05d2      	lsls	r2, r2, #23
 8000648:	460c      	mov	r4, r1
 800064a:	d507      	bpl.n	800065c <fcwriter+0x24>
 800064c:	f8d3 802c 	ldr.w	r8, [r3, #44]	; 0x2c
 8000650:	f1b8 0f00 	cmp.w	r8, #0
 8000654:	d002      	beq.n	800065c <fcwriter+0x24>
 8000656:	2302      	movs	r3, #2
 8000658:	2200      	movs	r2, #0
 800065a:	47c0      	blx	r8
 800065c:	f000 fb30 	bl	8000cc0 <__errno>
 8000660:	2300      	movs	r3, #0
 8000662:	463a      	mov	r2, r7
 8000664:	6003      	str	r3, [r0, #0]
 8000666:	4631      	mov	r1, r6
 8000668:	68e3      	ldr	r3, [r4, #12]
 800066a:	6820      	ldr	r0, [r4, #0]
 800066c:	4798      	blx	r3
 800066e:	1e04      	subs	r4, r0, #0
 8000670:	da07      	bge.n	8000682 <fcwriter+0x4a>
 8000672:	f000 fb25 	bl	8000cc0 <__errno>
 8000676:	6803      	ldr	r3, [r0, #0]
 8000678:	b11b      	cbz	r3, 8000682 <fcwriter+0x4a>
 800067a:	f000 fb21 	bl	8000cc0 <__errno>
 800067e:	6803      	ldr	r3, [r0, #0]
 8000680:	602b      	str	r3, [r5, #0]
 8000682:	4620      	mov	r0, r4
 8000684:	e8bd 81f0 	ldmia.w	sp!, {r4, r5, r6, r7, r8, pc}

08000688 <fcreader>:
 8000688:	b5f8      	push	{r3, r4, r5, r6, r7, lr}
 800068a:	460c      	mov	r4, r1
 800068c:	4616      	mov	r6, r2
 800068e:	461f      	mov	r7, r3
 8000690:	4605      	mov	r5, r0
 8000692:	f000 fb15 	bl	8000cc0 <__errno>
 8000696:	2300      	movs	r3, #0
 8000698:	463a      	mov	r2, r7
 800069a:	6003      	str	r3, [r0, #0]
 800069c:	4631      	mov	r1, r6
 800069e:	68a3      	ldr	r3, [r4, #8]
 80006a0:	6820      	ldr	r0, [r4, #0]
 80006a2:	4798      	blx	r3
 80006a4:	1e04      	subs	r4, r0, #0
 80006a6:	da07      	bge.n	80006b8 <fcreader+0x30>
 80006a8:	f000 fb0a 	bl	8000cc0 <__errno>
 80006ac:	6803      	ldr	r3, [r0, #0]
 80006ae:	b11b      	cbz	r3, 80006b8 <fcreader+0x30>
 80006b0:	f000 fb06 	bl	8000cc0 <__errno>
 80006b4:	6803      	ldr	r3, [r0, #0]
 80006b6:	602b      	str	r3, [r5, #0]
 80006b8:	4620      	mov	r0, r4
 80006ba:	bdf8      	pop	{r3, r4, r5, r6, r7, pc}

080006bc <fcseeker>:
 80006bc:	b573      	push	{r0, r1, r4, r5, r6, lr}
 80006be:	460c      	mov	r4, r1
 80006c0:	461e      	mov	r6, r3
 80006c2:	9201      	str	r2, [sp, #4]
 80006c4:	4605      	mov	r5, r0
 80006c6:	f000 fafb 	bl	8000cc0 <__errno>
 80006ca:	2300      	movs	r3, #0
 80006cc:	4632      	mov	r2, r6
 80006ce:	6003      	str	r3, [r0, #0]
 80006d0:	a901      	add	r1, sp, #4
 80006d2:	6923      	ldr	r3, [r4, #16]
 80006d4:	6820      	ldr	r0, [r4, #0]
 80006d6:	4798      	blx	r3
 80006d8:	2800      	cmp	r0, #0
 80006da:	da07      	bge.n	80006ec <fcseeker+0x30>
 80006dc:	f000 faf0 	bl	8000cc0 <__errno>
 80006e0:	6803      	ldr	r3, [r0, #0]
 80006e2:	b11b      	cbz	r3, 80006ec <fcseeker+0x30>
 80006e4:	f000 faec 	bl	8000cc0 <__errno>
 80006e8:	6803      	ldr	r3, [r0, #0]
 80006ea:	602b      	str	r3, [r5, #0]
 80006ec:	9801      	ldr	r0, [sp, #4]
 80006ee:	b002      	add	sp, #8
 80006f0:	bd70      	pop	{r4, r5, r6, pc}
	...

080006f4 <_fopencookie_r>:
 80006f4:	b082      	sub	sp, #8
 80006f6:	e92d 47f3 	stmdb	sp!, {r0, r1, r4, r5, r6, r7, r8, r9, sl, lr}
 80006fa:	4689      	mov	r9, r1
 80006fc:	e9dd a70c 	ldrd	sl, r7, [sp, #48]	; 0x30
 8000700:	4611      	mov	r1, r2
 8000702:	aa01      	add	r2, sp, #4
 8000704:	4605      	mov	r5, r0
 8000706:	4698      	mov	r8, r3
 8000708:	930b      	str	r3, [sp, #44]	; 0x2c
 800070a:	f000 fc3d 	bl	8000f88 <__sflags>
 800070e:	4606      	mov	r6, r0
 8000710:	b930      	cbnz	r0, 8000720 <_fopencookie_r+0x2c>
 8000712:	2400      	movs	r4, #0
 8000714:	4620      	mov	r0, r4
 8000716:	b002      	add	sp, #8
 8000718:	e8bd 47f0 	ldmia.w	sp!, {r4, r5, r6, r7, r8, r9, sl, lr}
 800071c:	b002      	add	sp, #8
 800071e:	4770      	bx	lr
 8000720:	f010 0f14 	tst.w	r0, #20
 8000724:	d002      	beq.n	800072c <_fopencookie_r+0x38>
 8000726:	f1b8 0f00 	cmp.w	r8, #0
 800072a:	d005      	beq.n	8000738 <_fopencookie_r+0x44>
 800072c:	f016 0f18 	tst.w	r6, #24
 8000730:	d005      	beq.n	800073e <_fopencookie_r+0x4a>
 8000732:	f1ba 0f00 	cmp.w	sl, #0
 8000736:	d102      	bne.n	800073e <_fopencookie_r+0x4a>
 8000738:	2316      	movs	r3, #22
 800073a:	602b      	str	r3, [r5, #0]
 800073c:	e7e9      	b.n	8000712 <_fopencookie_r+0x1e>
 800073e:	4628      	mov	r0, r5
 8000740:	f000 fbe4 	bl	8000f0c <__sfp>
 8000744:	4604      	mov	r4, r0
 8000746:	2800      	cmp	r0, #0
 8000748:	d0e3      	beq.n	8000712 <_fopencookie_r+0x1e>
 800074a:	4628      	mov	r0, r5
 800074c:	2118      	movs	r1, #24
 800074e:	f000 f8e3 	bl	8000918 <_malloc_r>
 8000752:	4605      	mov	r5, r0
 8000754:	b928      	cbnz	r0, 8000762 <_fopencookie_r+0x6e>
 8000756:	f000 fc15 	bl	8000f84 <__sfp_lock_acquire>
 800075a:	81a5      	strh	r5, [r4, #12]
 800075c:	f000 fc13 	bl	8000f86 <__sfp_lock_release>
 8000760:	e7d7      	b.n	8000712 <_fopencookie_r+0x1e>
 8000762:	f64f 73ff 	movw	r3, #65535	; 0xffff
 8000766:	81e3      	strh	r3, [r4, #14]
 8000768:	4b0b      	ldr	r3, [pc, #44]	; (8000798 <_fopencookie_r+0xa4>)
 800076a:	81a6      	strh	r6, [r4, #12]
 800076c:	e9c0 9400 	strd	r9, r4, [r0]
 8000770:	6220      	str	r0, [r4, #32]
 8000772:	f8c0 8008 	str.w	r8, [r0, #8]
 8000776:	6263      	str	r3, [r4, #36]	; 0x24
 8000778:	4b08      	ldr	r3, [pc, #32]	; (800079c <_fopencookie_r+0xa8>)
 800077a:	f8c0 a00c 	str.w	sl, [r0, #12]
 800077e:	62a3      	str	r3, [r4, #40]	; 0x28
 8000780:	4b07      	ldr	r3, [pc, #28]	; (80007a0 <_fopencookie_r+0xac>)
 8000782:	2f00      	cmp	r7, #0
 8000784:	6107      	str	r7, [r0, #16]
 8000786:	bf18      	it	ne
 8000788:	461f      	movne	r7, r3
 800078a:	9b0e      	ldr	r3, [sp, #56]	; 0x38
 800078c:	62e7      	str	r7, [r4, #44]	; 0x2c
 800078e:	6143      	str	r3, [r0, #20]
 8000790:	4b04      	ldr	r3, [pc, #16]	; (80007a4 <_fopencookie_r+0xb0>)
 8000792:	6323      	str	r3, [r4, #48]	; 0x30
 8000794:	e7be      	b.n	8000714 <_fopencookie_r+0x20>
 8000796:	bf00      	nop
 8000798:	08000689 	.word	0x08000689
 800079c:	08000639 	.word	0x08000639
 80007a0:	080006bd 	.word	0x080006bd
 80007a4:	08000601 	.word	0x08000601

080007a8 <fopencookie>:
 80007a8:	b082      	sub	sp, #8
 80007aa:	b530      	push	{r4, r5, lr}
 80007ac:	4604      	mov	r4, r0
 80007ae:	460d      	mov	r5, r1
 80007b0:	b085      	sub	sp, #20
 80007b2:	a908      	add	r1, sp, #32
 80007b4:	e881 000c 	stmia.w	r1, {r2, r3}
 80007b8:	ab09      	add	r3, sp, #36	; 0x24
 80007ba:	e893 0007 	ldmia.w	r3, {r0, r1, r2}
 80007be:	e88d 0007 	stmia.w	sp, {r0, r1, r2}
 80007c2:	4806      	ldr	r0, [pc, #24]	; (80007dc <fopencookie+0x34>)
 80007c4:	462a      	mov	r2, r5
 80007c6:	4621      	mov	r1, r4
 80007c8:	9b08      	ldr	r3, [sp, #32]
 80007ca:	6800      	ldr	r0, [r0, #0]
 80007cc:	f7ff ff92 	bl	80006f4 <_fopencookie_r>
 80007d0:	b005      	add	sp, #20
 80007d2:	e8bd 4030 	ldmia.w	sp!, {r4, r5, lr}
 80007d6:	b002      	add	sp, #8
 80007d8:	4770      	bx	lr
 80007da:	bf00      	nop
 80007dc:	2000000c 	.word	0x2000000c

080007e0 <_fputs_r>:
 80007e0:	b570      	push	{r4, r5, r6, lr}
 80007e2:	460e      	mov	r6, r1
 80007e4:	4614      	mov	r4, r2
 80007e6:	4605      	mov	r5, r0
 80007e8:	b118      	cbz	r0, 80007f2 <_fputs_r+0x12>
 80007ea:	6983      	ldr	r3, [r0, #24]
 80007ec:	b90b      	cbnz	r3, 80007f2 <_fputs_r+0x12>
 80007ee:	f000 fb5d 	bl	8000eac <__sinit>
 80007f2:	4b1c      	ldr	r3, [pc, #112]	; (8000864 <_fputs_r+0x84>)
 80007f4:	429c      	cmp	r4, r3
 80007f6:	d10b      	bne.n	8000810 <_fputs_r+0x30>
 80007f8:	686c      	ldr	r4, [r5, #4]
 80007fa:	89a3      	ldrh	r3, [r4, #12]
 80007fc:	071b      	lsls	r3, r3, #28
 80007fe:	d511      	bpl.n	8000824 <_fputs_r+0x44>
 8000800:	6923      	ldr	r3, [r4, #16]
 8000802:	b17b      	cbz	r3, 8000824 <_fputs_r+0x44>
 8000804:	3e01      	subs	r6, #1
 8000806:	f816 1f01 	ldrb.w	r1, [r6, #1]!
 800080a:	b9a1      	cbnz	r1, 8000836 <_fputs_r+0x56>
 800080c:	4608      	mov	r0, r1
 800080e:	e011      	b.n	8000834 <_fputs_r+0x54>
 8000810:	4b15      	ldr	r3, [pc, #84]	; (8000868 <_fputs_r+0x88>)
 8000812:	429c      	cmp	r4, r3
 8000814:	d101      	bne.n	800081a <_fputs_r+0x3a>
 8000816:	68ac      	ldr	r4, [r5, #8]
 8000818:	e7ef      	b.n	80007fa <_fputs_r+0x1a>
 800081a:	4b14      	ldr	r3, [pc, #80]	; (800086c <_fputs_r+0x8c>)
 800081c:	429c      	cmp	r4, r3
 800081e:	bf08      	it	eq
 8000820:	68ec      	ldreq	r4, [r5, #12]
 8000822:	e7ea      	b.n	80007fa <_fputs_r+0x1a>
 8000824:	4621      	mov	r1, r4
 8000826:	4628      	mov	r0, r5
 8000828:	f000 f9dc 	bl	8000be4 <__swsetup_r>
 800082c:	2800      	cmp	r0, #0
 800082e:	d0e9      	beq.n	8000804 <_fputs_r+0x24>
 8000830:	f04f 30ff 	mov.w	r0, #4294967295	; 0xffffffff
 8000834:	bd70      	pop	{r4, r5, r6, pc}
 8000836:	68a3      	ldr	r3, [r4, #8]
 8000838:	3b01      	subs	r3, #1
 800083a:	2b00      	cmp	r3, #0
 800083c:	60a3      	str	r3, [r4, #8]
 800083e:	da04      	bge.n	800084a <_fputs_r+0x6a>
 8000840:	69a2      	ldr	r2, [r4, #24]
 8000842:	4293      	cmp	r3, r2
 8000844:	db06      	blt.n	8000854 <_fputs_r+0x74>
 8000846:	290a      	cmp	r1, #10
 8000848:	d004      	beq.n	8000854 <_fputs_r+0x74>
 800084a:	6823      	ldr	r3, [r4, #0]
 800084c:	1c5a      	adds	r2, r3, #1
 800084e:	6022      	str	r2, [r4, #0]
 8000850:	7019      	strb	r1, [r3, #0]
 8000852:	e7d8      	b.n	8000806 <_fputs_r+0x26>
 8000854:	4622      	mov	r2, r4
 8000856:	4628      	mov	r0, r5
 8000858:	f000 f972 	bl	8000b40 <__swbuf_r>
 800085c:	3001      	adds	r0, #1
 800085e:	d1d2      	bne.n	8000806 <_fputs_r+0x26>
 8000860:	e7e6      	b.n	8000830 <_fputs_r+0x50>
 8000862:	bf00      	nop
 8000864:	08001338 	.word	0x08001338
 8000868:	08001358 	.word	0x08001358
 800086c:	08001318 	.word	0x08001318

08000870 <fputs>:
 8000870:	4b02      	ldr	r3, [pc, #8]	; (800087c <fputs+0xc>)
 8000872:	460a      	mov	r2, r1
 8000874:	4601      	mov	r1, r0
 8000876:	6818      	ldr	r0, [r3, #0]
 8000878:	f7ff bfb2 	b.w	80007e0 <_fputs_r>
 800087c:	2000000c 	.word	0x2000000c

08000880 <_free_r>:
 8000880:	b538      	push	{r3, r4, r5, lr}
 8000882:	4605      	mov	r5, r0
 8000884:	2900      	cmp	r1, #0
 8000886:	d043      	beq.n	8000910 <_free_r+0x90>
 8000888:	f851 3c04 	ldr.w	r3, [r1, #-4]
 800088c:	1f0c      	subs	r4, r1, #4
 800088e:	2b00      	cmp	r3, #0
 8000890:	bfb8      	it	lt
 8000892:	18e4      	addlt	r4, r4, r3
 8000894:	f000 fc42 	bl	800111c <__malloc_lock>
 8000898:	4a1e      	ldr	r2, [pc, #120]	; (8000914 <_free_r+0x94>)
 800089a:	6813      	ldr	r3, [r2, #0]
 800089c:	4610      	mov	r0, r2
 800089e:	b933      	cbnz	r3, 80008ae <_free_r+0x2e>
 80008a0:	6063      	str	r3, [r4, #4]
 80008a2:	6014      	str	r4, [r2, #0]
 80008a4:	4628      	mov	r0, r5
 80008a6:	e8bd 4038 	ldmia.w	sp!, {r3, r4, r5, lr}
 80008aa:	f000 bc38 	b.w	800111e <__malloc_unlock>
 80008ae:	42a3      	cmp	r3, r4
 80008b0:	d90a      	bls.n	80008c8 <_free_r+0x48>
 80008b2:	6821      	ldr	r1, [r4, #0]
 80008b4:	1862      	adds	r2, r4, r1
 80008b6:	4293      	cmp	r3, r2
 80008b8:	bf01      	itttt	eq
 80008ba:	681a      	ldreq	r2, [r3, #0]
 80008bc:	685b      	ldreq	r3, [r3, #4]
 80008be:	1852      	addeq	r2, r2, r1
 80008c0:	6022      	streq	r2, [r4, #0]
 80008c2:	6063      	str	r3, [r4, #4]
 80008c4:	6004      	str	r4, [r0, #0]
 80008c6:	e7ed      	b.n	80008a4 <_free_r+0x24>
 80008c8:	461a      	mov	r2, r3
 80008ca:	685b      	ldr	r3, [r3, #4]
 80008cc:	b10b      	cbz	r3, 80008d2 <_free_r+0x52>
 80008ce:	42a3      	cmp	r3, r4
 80008d0:	d9fa      	bls.n	80008c8 <_free_r+0x48>
 80008d2:	6811      	ldr	r1, [r2, #0]
 80008d4:	1850      	adds	r0, r2, r1
 80008d6:	42a0      	cmp	r0, r4
 80008d8:	d10b      	bne.n	80008f2 <_free_r+0x72>
 80008da:	6820      	ldr	r0, [r4, #0]
 80008dc:	4401      	add	r1, r0
 80008de:	1850      	adds	r0, r2, r1
 80008e0:	4283      	cmp	r3, r0
 80008e2:	6011      	str	r1, [r2, #0]
 80008e4:	d1de      	bne.n	80008a4 <_free_r+0x24>
 80008e6:	6818      	ldr	r0, [r3, #0]
 80008e8:	685b      	ldr	r3, [r3, #4]
 80008ea:	4401      	add	r1, r0
 80008ec:	6011      	str	r1, [r2, #0]
 80008ee:	6053      	str	r3, [r2, #4]
 80008f0:	e7d8      	b.n	80008a4 <_free_r+0x24>
 80008f2:	d902      	bls.n	80008fa <_free_r+0x7a>
 80008f4:	230c      	movs	r3, #12
 80008f6:	602b      	str	r3, [r5, #0]
 80008f8:	e7d4      	b.n	80008a4 <_free_r+0x24>
 80008fa:	6820      	ldr	r0, [r4, #0]
 80008fc:	1821      	adds	r1, r4, r0
 80008fe:	428b      	cmp	r3, r1
 8000900:	bf01      	itttt	eq
 8000902:	6819      	ldreq	r1, [r3, #0]
 8000904:	685b      	ldreq	r3, [r3, #4]
 8000906:	1809      	addeq	r1, r1, r0
 8000908:	6021      	streq	r1, [r4, #0]
 800090a:	6063      	str	r3, [r4, #4]
 800090c:	6054      	str	r4, [r2, #4]
 800090e:	e7c9      	b.n	80008a4 <_free_r+0x24>
 8000910:	bd38      	pop	{r3, r4, r5, pc}
 8000912:	bf00      	nop
 8000914:	20000070 	.word	0x20000070

08000918 <_malloc_r>:
 8000918:	b5f8      	push	{r3, r4, r5, r6, r7, lr}
 800091a:	1ccd      	adds	r5, r1, #3
 800091c:	f025 0503 	bic.w	r5, r5, #3
 8000920:	3508      	adds	r5, #8
 8000922:	2d0c      	cmp	r5, #12
 8000924:	bf38      	it	cc
 8000926:	250c      	movcc	r5, #12
 8000928:	2d00      	cmp	r5, #0
 800092a:	4606      	mov	r6, r0
 800092c:	db01      	blt.n	8000932 <_malloc_r+0x1a>
 800092e:	42a9      	cmp	r1, r5
 8000930:	d903      	bls.n	800093a <_malloc_r+0x22>
 8000932:	230c      	movs	r3, #12
 8000934:	6033      	str	r3, [r6, #0]
 8000936:	2000      	movs	r0, #0
 8000938:	bdf8      	pop	{r3, r4, r5, r6, r7, pc}
 800093a:	f000 fbef 	bl	800111c <__malloc_lock>
 800093e:	4921      	ldr	r1, [pc, #132]	; (80009c4 <_malloc_r+0xac>)
 8000940:	680a      	ldr	r2, [r1, #0]
 8000942:	4614      	mov	r4, r2
 8000944:	b99c      	cbnz	r4, 800096e <_malloc_r+0x56>
 8000946:	4f20      	ldr	r7, [pc, #128]	; (80009c8 <_malloc_r+0xb0>)
 8000948:	683b      	ldr	r3, [r7, #0]
 800094a:	b923      	cbnz	r3, 8000956 <_malloc_r+0x3e>
 800094c:	4621      	mov	r1, r4
 800094e:	4630      	mov	r0, r6
 8000950:	f000 f83c 	bl	80009cc <_sbrk_r>
 8000954:	6038      	str	r0, [r7, #0]
 8000956:	4629      	mov	r1, r5
 8000958:	4630      	mov	r0, r6
 800095a:	f000 f837 	bl	80009cc <_sbrk_r>
 800095e:	1c43      	adds	r3, r0, #1
 8000960:	d123      	bne.n	80009aa <_malloc_r+0x92>
 8000962:	230c      	movs	r3, #12
 8000964:	4630      	mov	r0, r6
 8000966:	6033      	str	r3, [r6, #0]
 8000968:	f000 fbd9 	bl	800111e <__malloc_unlock>
 800096c:	e7e3      	b.n	8000936 <_malloc_r+0x1e>
 800096e:	6823      	ldr	r3, [r4, #0]
 8000970:	1b5b      	subs	r3, r3, r5
 8000972:	d417      	bmi.n	80009a4 <_malloc_r+0x8c>
 8000974:	2b0b      	cmp	r3, #11
 8000976:	d903      	bls.n	8000980 <_malloc_r+0x68>
 8000978:	6023      	str	r3, [r4, #0]
 800097a:	441c      	add	r4, r3
 800097c:	6025      	str	r5, [r4, #0]
 800097e:	e004      	b.n	800098a <_malloc_r+0x72>
 8000980:	6863      	ldr	r3, [r4, #4]
 8000982:	42a2      	cmp	r2, r4
 8000984:	bf0c      	ite	eq
 8000986:	600b      	streq	r3, [r1, #0]
 8000988:	6053      	strne	r3, [r2, #4]
 800098a:	4630      	mov	r0, r6
 800098c:	f000 fbc7 	bl	800111e <__malloc_unlock>
 8000990:	f104 000b 	add.w	r0, r4, #11
 8000994:	1d23      	adds	r3, r4, #4
 8000996:	f020 0007 	bic.w	r0, r0, #7
 800099a:	1ac2      	subs	r2, r0, r3
 800099c:	d0cc      	beq.n	8000938 <_malloc_r+0x20>
 800099e:	1a1b      	subs	r3, r3, r0
 80009a0:	50a3      	str	r3, [r4, r2]
 80009a2:	e7c9      	b.n	8000938 <_malloc_r+0x20>
 80009a4:	4622      	mov	r2, r4
 80009a6:	6864      	ldr	r4, [r4, #4]
 80009a8:	e7cc      	b.n	8000944 <_malloc_r+0x2c>
 80009aa:	1cc4      	adds	r4, r0, #3
 80009ac:	f024 0403 	bic.w	r4, r4, #3
 80009b0:	42a0      	cmp	r0, r4
 80009b2:	d0e3      	beq.n	800097c <_malloc_r+0x64>
 80009b4:	1a21      	subs	r1, r4, r0
 80009b6:	4630      	mov	r0, r6
 80009b8:	f000 f808 	bl	80009cc <_sbrk_r>
 80009bc:	3001      	adds	r0, #1
 80009be:	d1dd      	bne.n	800097c <_malloc_r+0x64>
 80009c0:	e7cf      	b.n	8000962 <_malloc_r+0x4a>
 80009c2:	bf00      	nop
 80009c4:	20000070 	.word	0x20000070
 80009c8:	20000074 	.word	0x20000074

080009cc <_sbrk_r>:
 80009cc:	b538      	push	{r3, r4, r5, lr}
 80009ce:	2300      	movs	r3, #0
 80009d0:	4d05      	ldr	r5, [pc, #20]	; (80009e8 <_sbrk_r+0x1c>)
 80009d2:	4604      	mov	r4, r0
 80009d4:	4608      	mov	r0, r1
 80009d6:	602b      	str	r3, [r5, #0]
 80009d8:	f000 fc76 	bl	80012c8 <_sbrk>
 80009dc:	1c43      	adds	r3, r0, #1
 80009de:	d102      	bne.n	80009e6 <_sbrk_r+0x1a>
 80009e0:	682b      	ldr	r3, [r5, #0]
 80009e2:	b103      	cbz	r3, 80009e6 <_sbrk_r+0x1a>
 80009e4:	6023      	str	r3, [r4, #0]
 80009e6:	bd38      	pop	{r3, r4, r5, pc}
 80009e8:	2000007c 	.word	0x2000007c

080009ec <setvbuf>:
 80009ec:	e92d 43f7 	stmdb	sp!, {r0, r1, r2, r4, r5, r6, r7, r8, r9, lr}
 80009f0:	461d      	mov	r5, r3
 80009f2:	4b4f      	ldr	r3, [pc, #316]	; (8000b30 <setvbuf+0x144>)
 80009f4:	4604      	mov	r4, r0
 80009f6:	681f      	ldr	r7, [r3, #0]
 80009f8:	460e      	mov	r6, r1
 80009fa:	4690      	mov	r8, r2
 80009fc:	b127      	cbz	r7, 8000a08 <setvbuf+0x1c>
 80009fe:	69bb      	ldr	r3, [r7, #24]
 8000a00:	b913      	cbnz	r3, 8000a08 <setvbuf+0x1c>
 8000a02:	4638      	mov	r0, r7
 8000a04:	f000 fa52 	bl	8000eac <__sinit>
 8000a08:	4b4a      	ldr	r3, [pc, #296]	; (8000b34 <setvbuf+0x148>)
 8000a0a:	429c      	cmp	r4, r3
 8000a0c:	d152      	bne.n	8000ab4 <setvbuf+0xc8>
 8000a0e:	687c      	ldr	r4, [r7, #4]
 8000a10:	f1b8 0f02 	cmp.w	r8, #2
 8000a14:	d006      	beq.n	8000a24 <setvbuf+0x38>
 8000a16:	f1b8 0f01 	cmp.w	r8, #1
 8000a1a:	f200 8086 	bhi.w	8000b2a <setvbuf+0x13e>
 8000a1e:	2d00      	cmp	r5, #0
 8000a20:	f2c0 8083 	blt.w	8000b2a <setvbuf+0x13e>
 8000a24:	4621      	mov	r1, r4
 8000a26:	4638      	mov	r0, r7
 8000a28:	f000 f9d6 	bl	8000dd8 <_fflush_r>
 8000a2c:	6b61      	ldr	r1, [r4, #52]	; 0x34
 8000a2e:	b141      	cbz	r1, 8000a42 <setvbuf+0x56>
 8000a30:	f104 0344 	add.w	r3, r4, #68	; 0x44
 8000a34:	4299      	cmp	r1, r3
 8000a36:	d002      	beq.n	8000a3e <setvbuf+0x52>
 8000a38:	4638      	mov	r0, r7
 8000a3a:	f7ff ff21 	bl	8000880 <_free_r>
 8000a3e:	2300      	movs	r3, #0
 8000a40:	6363      	str	r3, [r4, #52]	; 0x34
 8000a42:	2300      	movs	r3, #0
 8000a44:	61a3      	str	r3, [r4, #24]
 8000a46:	6063      	str	r3, [r4, #4]
 8000a48:	89a3      	ldrh	r3, [r4, #12]
 8000a4a:	061b      	lsls	r3, r3, #24
 8000a4c:	d503      	bpl.n	8000a56 <setvbuf+0x6a>
 8000a4e:	4638      	mov	r0, r7
 8000a50:	6921      	ldr	r1, [r4, #16]
 8000a52:	f7ff ff15 	bl	8000880 <_free_r>
 8000a56:	89a3      	ldrh	r3, [r4, #12]
 8000a58:	f1b8 0f02 	cmp.w	r8, #2
 8000a5c:	f423 634a 	bic.w	r3, r3, #3232	; 0xca0
 8000a60:	f023 0303 	bic.w	r3, r3, #3
 8000a64:	81a3      	strh	r3, [r4, #12]
 8000a66:	d05c      	beq.n	8000b22 <setvbuf+0x136>
 8000a68:	ab01      	add	r3, sp, #4
 8000a6a:	466a      	mov	r2, sp
 8000a6c:	4621      	mov	r1, r4
 8000a6e:	4638      	mov	r0, r7
 8000a70:	f000 fadf 	bl	8001032 <__swhatbuf_r>
 8000a74:	89a3      	ldrh	r3, [r4, #12]
 8000a76:	4318      	orrs	r0, r3
 8000a78:	81a0      	strh	r0, [r4, #12]
 8000a7a:	bb2d      	cbnz	r5, 8000ac8 <setvbuf+0xdc>
 8000a7c:	9d00      	ldr	r5, [sp, #0]
 8000a7e:	4628      	mov	r0, r5
 8000a80:	f000 fb3c 	bl	80010fc <malloc>
 8000a84:	4606      	mov	r6, r0
 8000a86:	2800      	cmp	r0, #0
 8000a88:	d146      	bne.n	8000b18 <setvbuf+0x12c>
 8000a8a:	f8dd 9000 	ldr.w	r9, [sp]
 8000a8e:	45a9      	cmp	r9, r5
 8000a90:	d13b      	bne.n	8000b0a <setvbuf+0x11e>
 8000a92:	f04f 30ff 	mov.w	r0, #4294967295	; 0xffffffff
 8000a96:	89a3      	ldrh	r3, [r4, #12]
 8000a98:	f043 0302 	orr.w	r3, r3, #2
 8000a9c:	81a3      	strh	r3, [r4, #12]
 8000a9e:	2300      	movs	r3, #0
 8000aa0:	60a3      	str	r3, [r4, #8]
 8000aa2:	f104 0347 	add.w	r3, r4, #71	; 0x47
 8000aa6:	6023      	str	r3, [r4, #0]
 8000aa8:	6123      	str	r3, [r4, #16]
 8000aaa:	2301      	movs	r3, #1
 8000aac:	6163      	str	r3, [r4, #20]
 8000aae:	b003      	add	sp, #12
 8000ab0:	e8bd 83f0 	ldmia.w	sp!, {r4, r5, r6, r7, r8, r9, pc}
 8000ab4:	4b20      	ldr	r3, [pc, #128]	; (8000b38 <setvbuf+0x14c>)
 8000ab6:	429c      	cmp	r4, r3
 8000ab8:	d101      	bne.n	8000abe <setvbuf+0xd2>
 8000aba:	68bc      	ldr	r4, [r7, #8]
 8000abc:	e7a8      	b.n	8000a10 <setvbuf+0x24>
 8000abe:	4b1f      	ldr	r3, [pc, #124]	; (8000b3c <setvbuf+0x150>)
 8000ac0:	429c      	cmp	r4, r3
 8000ac2:	bf08      	it	eq
 8000ac4:	68fc      	ldreq	r4, [r7, #12]
 8000ac6:	e7a3      	b.n	8000a10 <setvbuf+0x24>
 8000ac8:	2e00      	cmp	r6, #0
 8000aca:	d0d8      	beq.n	8000a7e <setvbuf+0x92>
 8000acc:	69bb      	ldr	r3, [r7, #24]
 8000ace:	b913      	cbnz	r3, 8000ad6 <setvbuf+0xea>
 8000ad0:	4638      	mov	r0, r7
 8000ad2:	f000 f9eb 	bl	8000eac <__sinit>
 8000ad6:	f1b8 0f01 	cmp.w	r8, #1
 8000ada:	bf08      	it	eq
 8000adc:	89a3      	ldrheq	r3, [r4, #12]
 8000ade:	e9c4 6504 	strd	r6, r5, [r4, #16]
 8000ae2:	bf04      	itt	eq
 8000ae4:	f043 0301 	orreq.w	r3, r3, #1
 8000ae8:	81a3      	strheq	r3, [r4, #12]
 8000aea:	89a3      	ldrh	r3, [r4, #12]
 8000aec:	6026      	str	r6, [r4, #0]
 8000aee:	f013 0008 	ands.w	r0, r3, #8
 8000af2:	d018      	beq.n	8000b26 <setvbuf+0x13a>
 8000af4:	2200      	movs	r2, #0
 8000af6:	f013 0001 	ands.w	r0, r3, #1
 8000afa:	bf1f      	itttt	ne
 8000afc:	426d      	negne	r5, r5
 8000afe:	4610      	movne	r0, r2
 8000b00:	60a2      	strne	r2, [r4, #8]
 8000b02:	61a5      	strne	r5, [r4, #24]
 8000b04:	bf08      	it	eq
 8000b06:	60a5      	streq	r5, [r4, #8]
 8000b08:	e7d1      	b.n	8000aae <setvbuf+0xc2>
 8000b0a:	4648      	mov	r0, r9
 8000b0c:	f000 faf6 	bl	80010fc <malloc>
 8000b10:	4606      	mov	r6, r0
 8000b12:	2800      	cmp	r0, #0
 8000b14:	d0bd      	beq.n	8000a92 <setvbuf+0xa6>
 8000b16:	464d      	mov	r5, r9
 8000b18:	89a3      	ldrh	r3, [r4, #12]
 8000b1a:	f043 0380 	orr.w	r3, r3, #128	; 0x80
 8000b1e:	81a3      	strh	r3, [r4, #12]
 8000b20:	e7d4      	b.n	8000acc <setvbuf+0xe0>
 8000b22:	2000      	movs	r0, #0
 8000b24:	e7b7      	b.n	8000a96 <setvbuf+0xaa>
 8000b26:	60a0      	str	r0, [r4, #8]
 8000b28:	e7c1      	b.n	8000aae <setvbuf+0xc2>
 8000b2a:	f04f 30ff 	mov.w	r0, #4294967295	; 0xffffffff
 8000b2e:	e7be      	b.n	8000aae <setvbuf+0xc2>
 8000b30:	2000000c 	.word	0x2000000c
 8000b34:	08001338 	.word	0x08001338
 8000b38:	08001358 	.word	0x08001358
 8000b3c:	08001318 	.word	0x08001318

08000b40 <__swbuf_r>:
 8000b40:	b5f8      	push	{r3, r4, r5, r6, r7, lr}
 8000b42:	460e      	mov	r6, r1
 8000b44:	4614      	mov	r4, r2
 8000b46:	4605      	mov	r5, r0
 8000b48:	b118      	cbz	r0, 8000b52 <__swbuf_r+0x12>
 8000b4a:	6983      	ldr	r3, [r0, #24]
 8000b4c:	b90b      	cbnz	r3, 8000b52 <__swbuf_r+0x12>
 8000b4e:	f000 f9ad 	bl	8000eac <__sinit>
 8000b52:	4b21      	ldr	r3, [pc, #132]	; (8000bd8 <__swbuf_r+0x98>)
 8000b54:	429c      	cmp	r4, r3
 8000b56:	d12b      	bne.n	8000bb0 <__swbuf_r+0x70>
 8000b58:	686c      	ldr	r4, [r5, #4]
 8000b5a:	69a3      	ldr	r3, [r4, #24]
 8000b5c:	60a3      	str	r3, [r4, #8]
 8000b5e:	89a3      	ldrh	r3, [r4, #12]
 8000b60:	071a      	lsls	r2, r3, #28
 8000b62:	d52f      	bpl.n	8000bc4 <__swbuf_r+0x84>
 8000b64:	6923      	ldr	r3, [r4, #16]
 8000b66:	b36b      	cbz	r3, 8000bc4 <__swbuf_r+0x84>
 8000b68:	6923      	ldr	r3, [r4, #16]
 8000b6a:	6820      	ldr	r0, [r4, #0]
 8000b6c:	b2f6      	uxtb	r6, r6
 8000b6e:	1ac0      	subs	r0, r0, r3
 8000b70:	6963      	ldr	r3, [r4, #20]
 8000b72:	4637      	mov	r7, r6
 8000b74:	4283      	cmp	r3, r0
 8000b76:	dc04      	bgt.n	8000b82 <__swbuf_r+0x42>
 8000b78:	4621      	mov	r1, r4
 8000b7a:	4628      	mov	r0, r5
 8000b7c:	f000 f92c 	bl	8000dd8 <_fflush_r>
 8000b80:	bb30      	cbnz	r0, 8000bd0 <__swbuf_r+0x90>
 8000b82:	68a3      	ldr	r3, [r4, #8]
 8000b84:	3001      	adds	r0, #1
 8000b86:	3b01      	subs	r3, #1
 8000b88:	60a3      	str	r3, [r4, #8]
 8000b8a:	6823      	ldr	r3, [r4, #0]
 8000b8c:	1c5a      	adds	r2, r3, #1
 8000b8e:	6022      	str	r2, [r4, #0]
 8000b90:	701e      	strb	r6, [r3, #0]
 8000b92:	6963      	ldr	r3, [r4, #20]
 8000b94:	4283      	cmp	r3, r0
 8000b96:	d004      	beq.n	8000ba2 <__swbuf_r+0x62>
 8000b98:	89a3      	ldrh	r3, [r4, #12]
 8000b9a:	07db      	lsls	r3, r3, #31
 8000b9c:	d506      	bpl.n	8000bac <__swbuf_r+0x6c>
 8000b9e:	2e0a      	cmp	r6, #10
 8000ba0:	d104      	bne.n	8000bac <__swbuf_r+0x6c>
 8000ba2:	4621      	mov	r1, r4
 8000ba4:	4628      	mov	r0, r5
 8000ba6:	f000 f917 	bl	8000dd8 <_fflush_r>
 8000baa:	b988      	cbnz	r0, 8000bd0 <__swbuf_r+0x90>
 8000bac:	4638      	mov	r0, r7
 8000bae:	bdf8      	pop	{r3, r4, r5, r6, r7, pc}
 8000bb0:	4b0a      	ldr	r3, [pc, #40]	; (8000bdc <__swbuf_r+0x9c>)
 8000bb2:	429c      	cmp	r4, r3
 8000bb4:	d101      	bne.n	8000bba <__swbuf_r+0x7a>
 8000bb6:	68ac      	ldr	r4, [r5, #8]
 8000bb8:	e7cf      	b.n	8000b5a <__swbuf_r+0x1a>
 8000bba:	4b09      	ldr	r3, [pc, #36]	; (8000be0 <__swbuf_r+0xa0>)
 8000bbc:	429c      	cmp	r4, r3
 8000bbe:	bf08      	it	eq
 8000bc0:	68ec      	ldreq	r4, [r5, #12]
 8000bc2:	e7ca      	b.n	8000b5a <__swbuf_r+0x1a>
 8000bc4:	4621      	mov	r1, r4
 8000bc6:	4628      	mov	r0, r5
 8000bc8:	f000 f80c 	bl	8000be4 <__swsetup_r>
 8000bcc:	2800      	cmp	r0, #0
 8000bce:	d0cb      	beq.n	8000b68 <__swbuf_r+0x28>
 8000bd0:	f04f 37ff 	mov.w	r7, #4294967295	; 0xffffffff
 8000bd4:	e7ea      	b.n	8000bac <__swbuf_r+0x6c>
 8000bd6:	bf00      	nop
 8000bd8:	08001338 	.word	0x08001338
 8000bdc:	08001358 	.word	0x08001358
 8000be0:	08001318 	.word	0x08001318

08000be4 <__swsetup_r>:
 8000be4:	4b32      	ldr	r3, [pc, #200]	; (8000cb0 <__swsetup_r+0xcc>)
 8000be6:	b570      	push	{r4, r5, r6, lr}
 8000be8:	681d      	ldr	r5, [r3, #0]
 8000bea:	4606      	mov	r6, r0
 8000bec:	460c      	mov	r4, r1
 8000bee:	b125      	cbz	r5, 8000bfa <__swsetup_r+0x16>
 8000bf0:	69ab      	ldr	r3, [r5, #24]
 8000bf2:	b913      	cbnz	r3, 8000bfa <__swsetup_r+0x16>
 8000bf4:	4628      	mov	r0, r5
 8000bf6:	f000 f959 	bl	8000eac <__sinit>
 8000bfa:	4b2e      	ldr	r3, [pc, #184]	; (8000cb4 <__swsetup_r+0xd0>)
 8000bfc:	429c      	cmp	r4, r3
 8000bfe:	d10f      	bne.n	8000c20 <__swsetup_r+0x3c>
 8000c00:	686c      	ldr	r4, [r5, #4]
 8000c02:	89a3      	ldrh	r3, [r4, #12]
 8000c04:	f9b4 200c 	ldrsh.w	r2, [r4, #12]
 8000c08:	0719      	lsls	r1, r3, #28
 8000c0a:	d42c      	bmi.n	8000c66 <__swsetup_r+0x82>
 8000c0c:	06dd      	lsls	r5, r3, #27
 8000c0e:	d411      	bmi.n	8000c34 <__swsetup_r+0x50>
 8000c10:	2309      	movs	r3, #9
 8000c12:	6033      	str	r3, [r6, #0]
 8000c14:	f042 0340 	orr.w	r3, r2, #64	; 0x40
 8000c18:	f04f 30ff 	mov.w	r0, #4294967295	; 0xffffffff
 8000c1c:	81a3      	strh	r3, [r4, #12]
 8000c1e:	e03e      	b.n	8000c9e <__swsetup_r+0xba>
 8000c20:	4b25      	ldr	r3, [pc, #148]	; (8000cb8 <__swsetup_r+0xd4>)
 8000c22:	429c      	cmp	r4, r3
 8000c24:	d101      	bne.n	8000c2a <__swsetup_r+0x46>
 8000c26:	68ac      	ldr	r4, [r5, #8]
 8000c28:	e7eb      	b.n	8000c02 <__swsetup_r+0x1e>
 8000c2a:	4b24      	ldr	r3, [pc, #144]	; (8000cbc <__swsetup_r+0xd8>)
 8000c2c:	429c      	cmp	r4, r3
 8000c2e:	bf08      	it	eq
 8000c30:	68ec      	ldreq	r4, [r5, #12]
 8000c32:	e7e6      	b.n	8000c02 <__swsetup_r+0x1e>
 8000c34:	0758      	lsls	r0, r3, #29
 8000c36:	d512      	bpl.n	8000c5e <__swsetup_r+0x7a>
 8000c38:	6b61      	ldr	r1, [r4, #52]	; 0x34
 8000c3a:	b141      	cbz	r1, 8000c4e <__swsetup_r+0x6a>
 8000c3c:	f104 0344 	add.w	r3, r4, #68	; 0x44
 8000c40:	4299      	cmp	r1, r3
 8000c42:	d002      	beq.n	8000c4a <__swsetup_r+0x66>
 8000c44:	4630      	mov	r0, r6
 8000c46:	f7ff fe1b 	bl	8000880 <_free_r>
 8000c4a:	2300      	movs	r3, #0
 8000c4c:	6363      	str	r3, [r4, #52]	; 0x34
 8000c4e:	89a3      	ldrh	r3, [r4, #12]
 8000c50:	f023 0324 	bic.w	r3, r3, #36	; 0x24
 8000c54:	81a3      	strh	r3, [r4, #12]
 8000c56:	2300      	movs	r3, #0
 8000c58:	6063      	str	r3, [r4, #4]
 8000c5a:	6923      	ldr	r3, [r4, #16]
 8000c5c:	6023      	str	r3, [r4, #0]
 8000c5e:	89a3      	ldrh	r3, [r4, #12]
 8000c60:	f043 0308 	orr.w	r3, r3, #8
 8000c64:	81a3      	strh	r3, [r4, #12]
 8000c66:	6923      	ldr	r3, [r4, #16]
 8000c68:	b94b      	cbnz	r3, 8000c7e <__swsetup_r+0x9a>
 8000c6a:	89a3      	ldrh	r3, [r4, #12]
 8000c6c:	f403 7320 	and.w	r3, r3, #640	; 0x280
 8000c70:	f5b3 7f00 	cmp.w	r3, #512	; 0x200
 8000c74:	d003      	beq.n	8000c7e <__swsetup_r+0x9a>
 8000c76:	4621      	mov	r1, r4
 8000c78:	4630      	mov	r0, r6
 8000c7a:	f000 f9ff 	bl	800107c <__smakebuf_r>
 8000c7e:	89a0      	ldrh	r0, [r4, #12]
 8000c80:	f9b4 200c 	ldrsh.w	r2, [r4, #12]
 8000c84:	f010 0301 	ands.w	r3, r0, #1
 8000c88:	d00a      	beq.n	8000ca0 <__swsetup_r+0xbc>
 8000c8a:	2300      	movs	r3, #0
 8000c8c:	60a3      	str	r3, [r4, #8]
 8000c8e:	6963      	ldr	r3, [r4, #20]
 8000c90:	425b      	negs	r3, r3
 8000c92:	61a3      	str	r3, [r4, #24]
 8000c94:	6923      	ldr	r3, [r4, #16]
 8000c96:	b943      	cbnz	r3, 8000caa <__swsetup_r+0xc6>
 8000c98:	f010 0080 	ands.w	r0, r0, #128	; 0x80
 8000c9c:	d1ba      	bne.n	8000c14 <__swsetup_r+0x30>
 8000c9e:	bd70      	pop	{r4, r5, r6, pc}
 8000ca0:	0781      	lsls	r1, r0, #30
 8000ca2:	bf58      	it	pl
 8000ca4:	6963      	ldrpl	r3, [r4, #20]
 8000ca6:	60a3      	str	r3, [r4, #8]
 8000ca8:	e7f4      	b.n	8000c94 <__swsetup_r+0xb0>
 8000caa:	2000      	movs	r0, #0
 8000cac:	e7f7      	b.n	8000c9e <__swsetup_r+0xba>
 8000cae:	bf00      	nop
 8000cb0:	2000000c 	.word	0x2000000c
 8000cb4:	08001338 	.word	0x08001338
 8000cb8:	08001358 	.word	0x08001358
 8000cbc:	08001318 	.word	0x08001318

08000cc0 <__errno>:
 8000cc0:	4b01      	ldr	r3, [pc, #4]	; (8000cc8 <__errno+0x8>)
 8000cc2:	6818      	ldr	r0, [r3, #0]
 8000cc4:	4770      	bx	lr
 8000cc6:	bf00      	nop
 8000cc8:	2000000c 	.word	0x2000000c

08000ccc <__sflush_r>:
 8000ccc:	898a      	ldrh	r2, [r1, #12]
 8000cce:	e92d 41f0 	stmdb	sp!, {r4, r5, r6, r7, r8, lr}
 8000cd2:	4605      	mov	r5, r0
 8000cd4:	0710      	lsls	r0, r2, #28
 8000cd6:	460c      	mov	r4, r1
 8000cd8:	d458      	bmi.n	8000d8c <__sflush_r+0xc0>
 8000cda:	684b      	ldr	r3, [r1, #4]
 8000cdc:	2b00      	cmp	r3, #0
 8000cde:	dc05      	bgt.n	8000cec <__sflush_r+0x20>
 8000ce0:	6c0b      	ldr	r3, [r1, #64]	; 0x40
 8000ce2:	2b00      	cmp	r3, #0
 8000ce4:	dc02      	bgt.n	8000cec <__sflush_r+0x20>
 8000ce6:	2000      	movs	r0, #0
 8000ce8:	e8bd 81f0 	ldmia.w	sp!, {r4, r5, r6, r7, r8, pc}
 8000cec:	6ae6      	ldr	r6, [r4, #44]	; 0x2c
 8000cee:	2e00      	cmp	r6, #0
 8000cf0:	d0f9      	beq.n	8000ce6 <__sflush_r+0x1a>
 8000cf2:	2300      	movs	r3, #0
 8000cf4:	f412 5280 	ands.w	r2, r2, #4096	; 0x1000
 8000cf8:	682f      	ldr	r7, [r5, #0]
 8000cfa:	602b      	str	r3, [r5, #0]
 8000cfc:	d032      	beq.n	8000d64 <__sflush_r+0x98>
 8000cfe:	6d60      	ldr	r0, [r4, #84]	; 0x54
 8000d00:	89a3      	ldrh	r3, [r4, #12]
 8000d02:	075a      	lsls	r2, r3, #29
 8000d04:	d505      	bpl.n	8000d12 <__sflush_r+0x46>
 8000d06:	6863      	ldr	r3, [r4, #4]
 8000d08:	1ac0      	subs	r0, r0, r3
 8000d0a:	6b63      	ldr	r3, [r4, #52]	; 0x34
 8000d0c:	b10b      	cbz	r3, 8000d12 <__sflush_r+0x46>
 8000d0e:	6c23      	ldr	r3, [r4, #64]	; 0x40
 8000d10:	1ac0      	subs	r0, r0, r3
 8000d12:	2300      	movs	r3, #0
 8000d14:	4602      	mov	r2, r0
 8000d16:	6ae6      	ldr	r6, [r4, #44]	; 0x2c
 8000d18:	4628      	mov	r0, r5
 8000d1a:	6a21      	ldr	r1, [r4, #32]
 8000d1c:	47b0      	blx	r6
 8000d1e:	1c43      	adds	r3, r0, #1
 8000d20:	89a3      	ldrh	r3, [r4, #12]
 8000d22:	d106      	bne.n	8000d32 <__sflush_r+0x66>
 8000d24:	6829      	ldr	r1, [r5, #0]
 8000d26:	291d      	cmp	r1, #29
 8000d28:	d82c      	bhi.n	8000d84 <__sflush_r+0xb8>
 8000d2a:	4a2a      	ldr	r2, [pc, #168]	; (8000dd4 <__sflush_r+0x108>)
 8000d2c:	40ca      	lsrs	r2, r1
 8000d2e:	07d6      	lsls	r6, r2, #31
 8000d30:	d528      	bpl.n	8000d84 <__sflush_r+0xb8>
 8000d32:	2200      	movs	r2, #0
 8000d34:	6062      	str	r2, [r4, #4]
 8000d36:	6922      	ldr	r2, [r4, #16]
 8000d38:	04d9      	lsls	r1, r3, #19
 8000d3a:	6022      	str	r2, [r4, #0]
 8000d3c:	d504      	bpl.n	8000d48 <__sflush_r+0x7c>
 8000d3e:	1c42      	adds	r2, r0, #1
 8000d40:	d101      	bne.n	8000d46 <__sflush_r+0x7a>
 8000d42:	682b      	ldr	r3, [r5, #0]
 8000d44:	b903      	cbnz	r3, 8000d48 <__sflush_r+0x7c>
 8000d46:	6560      	str	r0, [r4, #84]	; 0x54
 8000d48:	6b61      	ldr	r1, [r4, #52]	; 0x34
 8000d4a:	602f      	str	r7, [r5, #0]
 8000d4c:	2900      	cmp	r1, #0
 8000d4e:	d0ca      	beq.n	8000ce6 <__sflush_r+0x1a>
 8000d50:	f104 0344 	add.w	r3, r4, #68	; 0x44
 8000d54:	4299      	cmp	r1, r3
 8000d56:	d002      	beq.n	8000d5e <__sflush_r+0x92>
 8000d58:	4628      	mov	r0, r5
 8000d5a:	f7ff fd91 	bl	8000880 <_free_r>
 8000d5e:	2000      	movs	r0, #0
 8000d60:	6360      	str	r0, [r4, #52]	; 0x34
 8000d62:	e7c1      	b.n	8000ce8 <__sflush_r+0x1c>
 8000d64:	6a21      	ldr	r1, [r4, #32]
 8000d66:	2301      	movs	r3, #1
 8000d68:	4628      	mov	r0, r5
 8000d6a:	47b0      	blx	r6
 8000d6c:	1c41      	adds	r1, r0, #1
 8000d6e:	d1c7      	bne.n	8000d00 <__sflush_r+0x34>
 8000d70:	682b      	ldr	r3, [r5, #0]
 8000d72:	2b00      	cmp	r3, #0
 8000d74:	d0c4      	beq.n	8000d00 <__sflush_r+0x34>
 8000d76:	2b1d      	cmp	r3, #29
 8000d78:	d001      	beq.n	8000d7e <__sflush_r+0xb2>
 8000d7a:	2b16      	cmp	r3, #22
 8000d7c:	d101      	bne.n	8000d82 <__sflush_r+0xb6>
 8000d7e:	602f      	str	r7, [r5, #0]
 8000d80:	e7b1      	b.n	8000ce6 <__sflush_r+0x1a>
 8000d82:	89a3      	ldrh	r3, [r4, #12]
 8000d84:	f043 0340 	orr.w	r3, r3, #64	; 0x40
 8000d88:	81a3      	strh	r3, [r4, #12]
 8000d8a:	e7ad      	b.n	8000ce8 <__sflush_r+0x1c>
 8000d8c:	690f      	ldr	r7, [r1, #16]
 8000d8e:	2f00      	cmp	r7, #0
 8000d90:	d0a9      	beq.n	8000ce6 <__sflush_r+0x1a>
 8000d92:	0793      	lsls	r3, r2, #30
 8000d94:	bf18      	it	ne
 8000d96:	2300      	movne	r3, #0
 8000d98:	680e      	ldr	r6, [r1, #0]
 8000d9a:	bf08      	it	eq
 8000d9c:	694b      	ldreq	r3, [r1, #20]
 8000d9e:	eba6 0807 	sub.w	r8, r6, r7
 8000da2:	600f      	str	r7, [r1, #0]
 8000da4:	608b      	str	r3, [r1, #8]
 8000da6:	f1b8 0f00 	cmp.w	r8, #0
 8000daa:	dd9c      	ble.n	8000ce6 <__sflush_r+0x1a>
 8000dac:	4643      	mov	r3, r8
 8000dae:	463a      	mov	r2, r7
 8000db0:	4628      	mov	r0, r5
 8000db2:	6a21      	ldr	r1, [r4, #32]
 8000db4:	6aa6      	ldr	r6, [r4, #40]	; 0x28
 8000db6:	47b0      	blx	r6
 8000db8:	2800      	cmp	r0, #0
 8000dba:	dc06      	bgt.n	8000dca <__sflush_r+0xfe>
 8000dbc:	89a3      	ldrh	r3, [r4, #12]
 8000dbe:	f04f 30ff 	mov.w	r0, #4294967295	; 0xffffffff
 8000dc2:	f043 0340 	orr.w	r3, r3, #64	; 0x40
 8000dc6:	81a3      	strh	r3, [r4, #12]
 8000dc8:	e78e      	b.n	8000ce8 <__sflush_r+0x1c>
 8000dca:	4407      	add	r7, r0
 8000dcc:	eba8 0800 	sub.w	r8, r8, r0
 8000dd0:	e7e9      	b.n	8000da6 <__sflush_r+0xda>
 8000dd2:	bf00      	nop
 8000dd4:	20400001 	.word	0x20400001

08000dd8 <_fflush_r>:
 8000dd8:	b538      	push	{r3, r4, r5, lr}
 8000dda:	690b      	ldr	r3, [r1, #16]
 8000ddc:	4605      	mov	r5, r0
 8000dde:	460c      	mov	r4, r1
 8000de0:	b1db      	cbz	r3, 8000e1a <_fflush_r+0x42>
 8000de2:	b118      	cbz	r0, 8000dec <_fflush_r+0x14>
 8000de4:	6983      	ldr	r3, [r0, #24]
 8000de6:	b90b      	cbnz	r3, 8000dec <_fflush_r+0x14>
 8000de8:	f000 f860 	bl	8000eac <__sinit>
 8000dec:	4b0c      	ldr	r3, [pc, #48]	; (8000e20 <_fflush_r+0x48>)
 8000dee:	429c      	cmp	r4, r3
 8000df0:	d109      	bne.n	8000e06 <_fflush_r+0x2e>
 8000df2:	686c      	ldr	r4, [r5, #4]
 8000df4:	f9b4 300c 	ldrsh.w	r3, [r4, #12]
 8000df8:	b17b      	cbz	r3, 8000e1a <_fflush_r+0x42>
 8000dfa:	4621      	mov	r1, r4
 8000dfc:	4628      	mov	r0, r5
 8000dfe:	e8bd 4038 	ldmia.w	sp!, {r3, r4, r5, lr}
 8000e02:	f7ff bf63 	b.w	8000ccc <__sflush_r>
 8000e06:	4b07      	ldr	r3, [pc, #28]	; (8000e24 <_fflush_r+0x4c>)
 8000e08:	429c      	cmp	r4, r3
 8000e0a:	d101      	bne.n	8000e10 <_fflush_r+0x38>
 8000e0c:	68ac      	ldr	r4, [r5, #8]
 8000e0e:	e7f1      	b.n	8000df4 <_fflush_r+0x1c>
 8000e10:	4b05      	ldr	r3, [pc, #20]	; (8000e28 <_fflush_r+0x50>)
 8000e12:	429c      	cmp	r4, r3
 8000e14:	bf08      	it	eq
 8000e16:	68ec      	ldreq	r4, [r5, #12]
 8000e18:	e7ec      	b.n	8000df4 <_fflush_r+0x1c>
 8000e1a:	2000      	movs	r0, #0
 8000e1c:	bd38      	pop	{r3, r4, r5, pc}
 8000e1e:	bf00      	nop
 8000e20:	08001338 	.word	0x08001338
 8000e24:	08001358 	.word	0x08001358
 8000e28:	08001318 	.word	0x08001318

08000e2c <std>:
 8000e2c:	2300      	movs	r3, #0
 8000e2e:	b510      	push	{r4, lr}
 8000e30:	4604      	mov	r4, r0
 8000e32:	e9c0 3300 	strd	r3, r3, [r0]
 8000e36:	e9c0 3304 	strd	r3, r3, [r0, #16]
 8000e3a:	6083      	str	r3, [r0, #8]
 8000e3c:	8181      	strh	r1, [r0, #12]
 8000e3e:	6643      	str	r3, [r0, #100]	; 0x64
 8000e40:	81c2      	strh	r2, [r0, #14]
 8000e42:	6183      	str	r3, [r0, #24]
 8000e44:	4619      	mov	r1, r3
 8000e46:	2208      	movs	r2, #8
 8000e48:	305c      	adds	r0, #92	; 0x5c
 8000e4a:	f000 f95f 	bl	800110c <memset>
 8000e4e:	4b05      	ldr	r3, [pc, #20]	; (8000e64 <std+0x38>)
 8000e50:	6224      	str	r4, [r4, #32]
 8000e52:	6263      	str	r3, [r4, #36]	; 0x24
 8000e54:	4b04      	ldr	r3, [pc, #16]	; (8000e68 <std+0x3c>)
 8000e56:	62a3      	str	r3, [r4, #40]	; 0x28
 8000e58:	4b04      	ldr	r3, [pc, #16]	; (8000e6c <std+0x40>)
 8000e5a:	62e3      	str	r3, [r4, #44]	; 0x2c
 8000e5c:	4b04      	ldr	r3, [pc, #16]	; (8000e70 <std+0x44>)
 8000e5e:	6323      	str	r3, [r4, #48]	; 0x30
 8000e60:	bd10      	pop	{r4, pc}
 8000e62:	bf00      	nop
 8000e64:	08001121 	.word	0x08001121
 8000e68:	08001143 	.word	0x08001143
 8000e6c:	0800117b 	.word	0x0800117b
 8000e70:	0800119f 	.word	0x0800119f

08000e74 <_cleanup_r>:
 8000e74:	4901      	ldr	r1, [pc, #4]	; (8000e7c <_cleanup_r+0x8>)
 8000e76:	f000 b8bd 	b.w	8000ff4 <_fwalk_reent>
 8000e7a:	bf00      	nop
 8000e7c:	08000dd9 	.word	0x08000dd9

08000e80 <__sfmoreglue>:
 8000e80:	b570      	push	{r4, r5, r6, lr}
 8000e82:	2568      	movs	r5, #104	; 0x68
 8000e84:	1e4a      	subs	r2, r1, #1
 8000e86:	4355      	muls	r5, r2
 8000e88:	460e      	mov	r6, r1
 8000e8a:	f105 0174 	add.w	r1, r5, #116	; 0x74
 8000e8e:	f7ff fd43 	bl	8000918 <_malloc_r>
 8000e92:	4604      	mov	r4, r0
 8000e94:	b140      	cbz	r0, 8000ea8 <__sfmoreglue+0x28>
 8000e96:	2100      	movs	r1, #0
 8000e98:	e9c0 1600 	strd	r1, r6, [r0]
 8000e9c:	300c      	adds	r0, #12
 8000e9e:	60a0      	str	r0, [r4, #8]
 8000ea0:	f105 0268 	add.w	r2, r5, #104	; 0x68
 8000ea4:	f000 f932 	bl	800110c <memset>
 8000ea8:	4620      	mov	r0, r4
 8000eaa:	bd70      	pop	{r4, r5, r6, pc}

08000eac <__sinit>:
 8000eac:	6983      	ldr	r3, [r0, #24]
 8000eae:	b510      	push	{r4, lr}
 8000eb0:	4604      	mov	r4, r0
 8000eb2:	bb33      	cbnz	r3, 8000f02 <__sinit+0x56>
 8000eb4:	e9c0 3312 	strd	r3, r3, [r0, #72]	; 0x48
 8000eb8:	6503      	str	r3, [r0, #80]	; 0x50
 8000eba:	4b12      	ldr	r3, [pc, #72]	; (8000f04 <__sinit+0x58>)
 8000ebc:	4a12      	ldr	r2, [pc, #72]	; (8000f08 <__sinit+0x5c>)
 8000ebe:	681b      	ldr	r3, [r3, #0]
 8000ec0:	6282      	str	r2, [r0, #40]	; 0x28
 8000ec2:	4298      	cmp	r0, r3
 8000ec4:	bf04      	itt	eq
 8000ec6:	2301      	moveq	r3, #1
 8000ec8:	6183      	streq	r3, [r0, #24]
 8000eca:	f000 f81f 	bl	8000f0c <__sfp>
 8000ece:	6060      	str	r0, [r4, #4]
 8000ed0:	4620      	mov	r0, r4
 8000ed2:	f000 f81b 	bl	8000f0c <__sfp>
 8000ed6:	60a0      	str	r0, [r4, #8]
 8000ed8:	4620      	mov	r0, r4
 8000eda:	f000 f817 	bl	8000f0c <__sfp>
 8000ede:	2200      	movs	r2, #0
 8000ee0:	2104      	movs	r1, #4
 8000ee2:	60e0      	str	r0, [r4, #12]
 8000ee4:	6860      	ldr	r0, [r4, #4]
 8000ee6:	f7ff ffa1 	bl	8000e2c <std>
 8000eea:	2201      	movs	r2, #1
 8000eec:	2109      	movs	r1, #9
 8000eee:	68a0      	ldr	r0, [r4, #8]
 8000ef0:	f7ff ff9c 	bl	8000e2c <std>
 8000ef4:	2202      	movs	r2, #2
 8000ef6:	2112      	movs	r1, #18
 8000ef8:	68e0      	ldr	r0, [r4, #12]
 8000efa:	f7ff ff97 	bl	8000e2c <std>
 8000efe:	2301      	movs	r3, #1
 8000f00:	61a3      	str	r3, [r4, #24]
 8000f02:	bd10      	pop	{r4, pc}
 8000f04:	08001314 	.word	0x08001314
 8000f08:	08000e75 	.word	0x08000e75

08000f0c <__sfp>:
 8000f0c:	b5f8      	push	{r3, r4, r5, r6, r7, lr}
 8000f0e:	4b1b      	ldr	r3, [pc, #108]	; (8000f7c <__sfp+0x70>)
 8000f10:	4607      	mov	r7, r0
 8000f12:	681e      	ldr	r6, [r3, #0]
 8000f14:	69b3      	ldr	r3, [r6, #24]
 8000f16:	b913      	cbnz	r3, 8000f1e <__sfp+0x12>
 8000f18:	4630      	mov	r0, r6
 8000f1a:	f7ff ffc7 	bl	8000eac <__sinit>
 8000f1e:	3648      	adds	r6, #72	; 0x48
 8000f20:	e9d6 3401 	ldrd	r3, r4, [r6, #4]
 8000f24:	3b01      	subs	r3, #1
 8000f26:	d503      	bpl.n	8000f30 <__sfp+0x24>
 8000f28:	6833      	ldr	r3, [r6, #0]
 8000f2a:	b1db      	cbz	r3, 8000f64 <__sfp+0x58>
 8000f2c:	6836      	ldr	r6, [r6, #0]
 8000f2e:	e7f7      	b.n	8000f20 <__sfp+0x14>
 8000f30:	f9b4 500c 	ldrsh.w	r5, [r4, #12]
 8000f34:	b9a5      	cbnz	r5, 8000f60 <__sfp+0x54>
 8000f36:	4b12      	ldr	r3, [pc, #72]	; (8000f80 <__sfp+0x74>)
 8000f38:	2208      	movs	r2, #8
 8000f3a:	4629      	mov	r1, r5
 8000f3c:	e9c4 5500 	strd	r5, r5, [r4]
 8000f40:	e9c4 3503 	strd	r3, r5, [r4, #12]
 8000f44:	e9c4 5505 	strd	r5, r5, [r4, #20]
 8000f48:	6665      	str	r5, [r4, #100]	; 0x64
 8000f4a:	60a5      	str	r5, [r4, #8]
 8000f4c:	f104 005c 	add.w	r0, r4, #92	; 0x5c
 8000f50:	f000 f8dc 	bl	800110c <memset>
 8000f54:	e9c4 550d 	strd	r5, r5, [r4, #52]	; 0x34
 8000f58:	e9c4 5512 	strd	r5, r5, [r4, #72]	; 0x48
 8000f5c:	4620      	mov	r0, r4
 8000f5e:	bdf8      	pop	{r3, r4, r5, r6, r7, pc}
 8000f60:	3468      	adds	r4, #104	; 0x68
 8000f62:	e7df      	b.n	8000f24 <__sfp+0x18>
 8000f64:	2104      	movs	r1, #4
 8000f66:	4638      	mov	r0, r7
 8000f68:	f7ff ff8a 	bl	8000e80 <__sfmoreglue>
 8000f6c:	4604      	mov	r4, r0
 8000f6e:	6030      	str	r0, [r6, #0]
 8000f70:	2800      	cmp	r0, #0
 8000f72:	d1db      	bne.n	8000f2c <__sfp+0x20>
 8000f74:	230c      	movs	r3, #12
 8000f76:	603b      	str	r3, [r7, #0]
 8000f78:	e7f0      	b.n	8000f5c <__sfp+0x50>
 8000f7a:	bf00      	nop
 8000f7c:	08001314 	.word	0x08001314
 8000f80:	ffff0001 	.word	0xffff0001

08000f84 <__sfp_lock_acquire>:
 8000f84:	4770      	bx	lr

08000f86 <__sfp_lock_release>:
 8000f86:	4770      	bx	lr

08000f88 <__sflags>:
 8000f88:	780b      	ldrb	r3, [r1, #0]
 8000f8a:	b530      	push	{r4, r5, lr}
 8000f8c:	2b72      	cmp	r3, #114	; 0x72
 8000f8e:	d022      	beq.n	8000fd6 <__sflags+0x4e>
 8000f90:	2b77      	cmp	r3, #119	; 0x77
 8000f92:	d024      	beq.n	8000fde <__sflags+0x56>
 8000f94:	2b61      	cmp	r3, #97	; 0x61
 8000f96:	d027      	beq.n	8000fe8 <__sflags+0x60>
 8000f98:	2316      	movs	r3, #22
 8000f9a:	6003      	str	r3, [r0, #0]
 8000f9c:	2000      	movs	r0, #0
 8000f9e:	bd30      	pop	{r4, r5, pc}
 8000fa0:	2d62      	cmp	r5, #98	; 0x62
 8000fa2:	d012      	beq.n	8000fca <__sflags+0x42>
 8000fa4:	2d78      	cmp	r5, #120	; 0x78
 8000fa6:	d013      	beq.n	8000fd0 <__sflags+0x48>
 8000fa8:	2d2b      	cmp	r5, #43	; 0x2b
 8000faa:	d107      	bne.n	8000fbc <__sflags+0x34>
 8000fac:	f020 001c 	bic.w	r0, r0, #28
 8000fb0:	f023 0303 	bic.w	r3, r3, #3
 8000fb4:	f040 0010 	orr.w	r0, r0, #16
 8000fb8:	f043 0302 	orr.w	r3, r3, #2
 8000fbc:	f811 5f01 	ldrb.w	r5, [r1, #1]!
 8000fc0:	2d00      	cmp	r5, #0
 8000fc2:	d1ed      	bne.n	8000fa0 <__sflags+0x18>
 8000fc4:	4323      	orrs	r3, r4
 8000fc6:	6013      	str	r3, [r2, #0]
 8000fc8:	e7e9      	b.n	8000f9e <__sflags+0x16>
 8000fca:	f443 3380 	orr.w	r3, r3, #65536	; 0x10000
 8000fce:	e7f5      	b.n	8000fbc <__sflags+0x34>
 8000fd0:	f443 6300 	orr.w	r3, r3, #2048	; 0x800
 8000fd4:	e7f2      	b.n	8000fbc <__sflags+0x34>
 8000fd6:	2400      	movs	r4, #0
 8000fd8:	2004      	movs	r0, #4
 8000fda:	4623      	mov	r3, r4
 8000fdc:	e7ee      	b.n	8000fbc <__sflags+0x34>
 8000fde:	f44f 64c0 	mov.w	r4, #1536	; 0x600
 8000fe2:	2301      	movs	r3, #1
 8000fe4:	2008      	movs	r0, #8
 8000fe6:	e7e9      	b.n	8000fbc <__sflags+0x34>
 8000fe8:	f44f 7402 	mov.w	r4, #520	; 0x208
 8000fec:	2301      	movs	r3, #1
 8000fee:	f44f 7084 	mov.w	r0, #264	; 0x108
 8000ff2:	e7e3      	b.n	8000fbc <__sflags+0x34>

08000ff4 <_fwalk_reent>:
 8000ff4:	e92d 43f8 	stmdb	sp!, {r3, r4, r5, r6, r7, r8, r9, lr}
 8000ff8:	4606      	mov	r6, r0
 8000ffa:	4688      	mov	r8, r1
 8000ffc:	2700      	movs	r7, #0
 8000ffe:	f100 0448 	add.w	r4, r0, #72	; 0x48
 8001002:	e9d4 9501 	ldrd	r9, r5, [r4, #4]
 8001006:	f1b9 0901 	subs.w	r9, r9, #1
 800100a:	d505      	bpl.n	8001018 <_fwalk_reent+0x24>
 800100c:	6824      	ldr	r4, [r4, #0]
 800100e:	2c00      	cmp	r4, #0
 8001010:	d1f7      	bne.n	8001002 <_fwalk_reent+0xe>
 8001012:	4638      	mov	r0, r7
 8001014:	e8bd 83f8 	ldmia.w	sp!, {r3, r4, r5, r6, r7, r8, r9, pc}
 8001018:	89ab      	ldrh	r3, [r5, #12]
 800101a:	2b01      	cmp	r3, #1
 800101c:	d907      	bls.n	800102e <_fwalk_reent+0x3a>
 800101e:	f9b5 300e 	ldrsh.w	r3, [r5, #14]
 8001022:	3301      	adds	r3, #1
 8001024:	d003      	beq.n	800102e <_fwalk_reent+0x3a>
 8001026:	4629      	mov	r1, r5
 8001028:	4630      	mov	r0, r6
 800102a:	47c0      	blx	r8
 800102c:	4307      	orrs	r7, r0
 800102e:	3568      	adds	r5, #104	; 0x68
 8001030:	e7e9      	b.n	8001006 <_fwalk_reent+0x12>

08001032 <__swhatbuf_r>:
 8001032:	b570      	push	{r4, r5, r6, lr}
 8001034:	460e      	mov	r6, r1
 8001036:	f9b1 100e 	ldrsh.w	r1, [r1, #14]
 800103a:	4614      	mov	r4, r2
 800103c:	2900      	cmp	r1, #0
 800103e:	461d      	mov	r5, r3
 8001040:	b096      	sub	sp, #88	; 0x58
 8001042:	da07      	bge.n	8001054 <__swhatbuf_r+0x22>
 8001044:	2300      	movs	r3, #0
 8001046:	602b      	str	r3, [r5, #0]
 8001048:	89b3      	ldrh	r3, [r6, #12]
 800104a:	061a      	lsls	r2, r3, #24
 800104c:	d410      	bmi.n	8001070 <__swhatbuf_r+0x3e>
 800104e:	f44f 6380 	mov.w	r3, #1024	; 0x400
 8001052:	e00e      	b.n	8001072 <__swhatbuf_r+0x40>
 8001054:	466a      	mov	r2, sp
 8001056:	f000 f8c9 	bl	80011ec <_fstat_r>
 800105a:	2800      	cmp	r0, #0
 800105c:	dbf2      	blt.n	8001044 <__swhatbuf_r+0x12>
 800105e:	9a01      	ldr	r2, [sp, #4]
 8001060:	f402 4270 	and.w	r2, r2, #61440	; 0xf000
 8001064:	f5a2 5300 	sub.w	r3, r2, #8192	; 0x2000
 8001068:	425a      	negs	r2, r3
 800106a:	415a      	adcs	r2, r3
 800106c:	602a      	str	r2, [r5, #0]
 800106e:	e7ee      	b.n	800104e <__swhatbuf_r+0x1c>
 8001070:	2340      	movs	r3, #64	; 0x40
 8001072:	2000      	movs	r0, #0
 8001074:	6023      	str	r3, [r4, #0]
 8001076:	b016      	add	sp, #88	; 0x58
 8001078:	bd70      	pop	{r4, r5, r6, pc}
	...

0800107c <__smakebuf_r>:
 800107c:	898b      	ldrh	r3, [r1, #12]
 800107e:	b573      	push	{r0, r1, r4, r5, r6, lr}
 8001080:	079d      	lsls	r5, r3, #30
 8001082:	4606      	mov	r6, r0
 8001084:	460c      	mov	r4, r1
 8001086:	d507      	bpl.n	8001098 <__smakebuf_r+0x1c>
 8001088:	f104 0347 	add.w	r3, r4, #71	; 0x47
 800108c:	6023      	str	r3, [r4, #0]
 800108e:	6123      	str	r3, [r4, #16]
 8001090:	2301      	movs	r3, #1
 8001092:	6163      	str	r3, [r4, #20]
 8001094:	b002      	add	sp, #8
 8001096:	bd70      	pop	{r4, r5, r6, pc}
 8001098:	466a      	mov	r2, sp
 800109a:	ab01      	add	r3, sp, #4
 800109c:	f7ff ffc9 	bl	8001032 <__swhatbuf_r>
 80010a0:	9900      	ldr	r1, [sp, #0]
 80010a2:	4605      	mov	r5, r0
 80010a4:	4630      	mov	r0, r6
 80010a6:	f7ff fc37 	bl	8000918 <_malloc_r>
 80010aa:	b948      	cbnz	r0, 80010c0 <__smakebuf_r+0x44>
 80010ac:	f9b4 300c 	ldrsh.w	r3, [r4, #12]
 80010b0:	059a      	lsls	r2, r3, #22
 80010b2:	d4ef      	bmi.n	8001094 <__smakebuf_r+0x18>
 80010b4:	f023 0303 	bic.w	r3, r3, #3
 80010b8:	f043 0302 	orr.w	r3, r3, #2
 80010bc:	81a3      	strh	r3, [r4, #12]
 80010be:	e7e3      	b.n	8001088 <__smakebuf_r+0xc>
 80010c0:	4b0d      	ldr	r3, [pc, #52]	; (80010f8 <__smakebuf_r+0x7c>)
 80010c2:	62b3      	str	r3, [r6, #40]	; 0x28
 80010c4:	89a3      	ldrh	r3, [r4, #12]
 80010c6:	6020      	str	r0, [r4, #0]
 80010c8:	f043 0380 	orr.w	r3, r3, #128	; 0x80
 80010cc:	81a3      	strh	r3, [r4, #12]
 80010ce:	9b00      	ldr	r3, [sp, #0]
 80010d0:	6120      	str	r0, [r4, #16]
 80010d2:	6163      	str	r3, [r4, #20]
 80010d4:	9b01      	ldr	r3, [sp, #4]
 80010d6:	b15b      	cbz	r3, 80010f0 <__smakebuf_r+0x74>
 80010d8:	4630      	mov	r0, r6
 80010da:	f9b4 100e 	ldrsh.w	r1, [r4, #14]
 80010de:	f000 f897 	bl	8001210 <_isatty_r>
 80010e2:	b128      	cbz	r0, 80010f0 <__smakebuf_r+0x74>
 80010e4:	89a3      	ldrh	r3, [r4, #12]
 80010e6:	f023 0303 	bic.w	r3, r3, #3
 80010ea:	f043 0301 	orr.w	r3, r3, #1
 80010ee:	81a3      	strh	r3, [r4, #12]
 80010f0:	89a0      	ldrh	r0, [r4, #12]
 80010f2:	4305      	orrs	r5, r0
 80010f4:	81a5      	strh	r5, [r4, #12]
 80010f6:	e7cd      	b.n	8001094 <__smakebuf_r+0x18>
 80010f8:	08000e75 	.word	0x08000e75

080010fc <malloc>:
 80010fc:	4b02      	ldr	r3, [pc, #8]	; (8001108 <malloc+0xc>)
 80010fe:	4601      	mov	r1, r0
 8001100:	6818      	ldr	r0, [r3, #0]
 8001102:	f7ff bc09 	b.w	8000918 <_malloc_r>
 8001106:	bf00      	nop
 8001108:	2000000c 	.word	0x2000000c

0800110c <memset>:
 800110c:	4603      	mov	r3, r0
 800110e:	4402      	add	r2, r0
 8001110:	4293      	cmp	r3, r2
 8001112:	d100      	bne.n	8001116 <memset+0xa>
 8001114:	4770      	bx	lr
 8001116:	f803 1b01 	strb.w	r1, [r3], #1
 800111a:	e7f9      	b.n	8001110 <memset+0x4>

0800111c <__malloc_lock>:
 800111c:	4770      	bx	lr

0800111e <__malloc_unlock>:
 800111e:	4770      	bx	lr

08001120 <__sread>:
 8001120:	b510      	push	{r4, lr}
 8001122:	460c      	mov	r4, r1
 8001124:	f9b1 100e 	ldrsh.w	r1, [r1, #14]
 8001128:	f000 f894 	bl	8001254 <_read_r>
 800112c:	2800      	cmp	r0, #0
 800112e:	bfab      	itete	ge
 8001130:	6d63      	ldrge	r3, [r4, #84]	; 0x54
 8001132:	89a3      	ldrhlt	r3, [r4, #12]
 8001134:	181b      	addge	r3, r3, r0
 8001136:	f423 5380 	biclt.w	r3, r3, #4096	; 0x1000
 800113a:	bfac      	ite	ge
 800113c:	6563      	strge	r3, [r4, #84]	; 0x54
 800113e:	81a3      	strhlt	r3, [r4, #12]
 8001140:	bd10      	pop	{r4, pc}

08001142 <__swrite>:
 8001142:	e92d 41f0 	stmdb	sp!, {r4, r5, r6, r7, r8, lr}
 8001146:	461f      	mov	r7, r3
 8001148:	898b      	ldrh	r3, [r1, #12]
 800114a:	4605      	mov	r5, r0
 800114c:	05db      	lsls	r3, r3, #23
 800114e:	460c      	mov	r4, r1
 8001150:	4616      	mov	r6, r2
 8001152:	d505      	bpl.n	8001160 <__swrite+0x1e>
 8001154:	2302      	movs	r3, #2
 8001156:	2200      	movs	r2, #0
 8001158:	f9b1 100e 	ldrsh.w	r1, [r1, #14]
 800115c:	f000 f868 	bl	8001230 <_lseek_r>
 8001160:	89a3      	ldrh	r3, [r4, #12]
 8001162:	4632      	mov	r2, r6
 8001164:	f423 5380 	bic.w	r3, r3, #4096	; 0x1000
 8001168:	81a3      	strh	r3, [r4, #12]
 800116a:	4628      	mov	r0, r5
 800116c:	463b      	mov	r3, r7
 800116e:	f9b4 100e 	ldrsh.w	r1, [r4, #14]
 8001172:	e8bd 41f0 	ldmia.w	sp!, {r4, r5, r6, r7, r8, lr}
 8001176:	f000 b817 	b.w	80011a8 <_write_r>

0800117a <__sseek>:
 800117a:	b510      	push	{r4, lr}
 800117c:	460c      	mov	r4, r1
 800117e:	f9b1 100e 	ldrsh.w	r1, [r1, #14]
 8001182:	f000 f855 	bl	8001230 <_lseek_r>
 8001186:	1c43      	adds	r3, r0, #1
 8001188:	89a3      	ldrh	r3, [r4, #12]
 800118a:	bf15      	itete	ne
 800118c:	6560      	strne	r0, [r4, #84]	; 0x54
 800118e:	f423 5380 	biceq.w	r3, r3, #4096	; 0x1000
 8001192:	f443 5380 	orrne.w	r3, r3, #4096	; 0x1000
 8001196:	81a3      	strheq	r3, [r4, #12]
 8001198:	bf18      	it	ne
 800119a:	81a3      	strhne	r3, [r4, #12]
 800119c:	bd10      	pop	{r4, pc}

0800119e <__sclose>:
 800119e:	f9b1 100e 	ldrsh.w	r1, [r1, #14]
 80011a2:	f000 b813 	b.w	80011cc <_close_r>
	...

080011a8 <_write_r>:
 80011a8:	b538      	push	{r3, r4, r5, lr}
 80011aa:	4604      	mov	r4, r0
 80011ac:	4608      	mov	r0, r1
 80011ae:	4611      	mov	r1, r2
 80011b0:	2200      	movs	r2, #0
 80011b2:	4d05      	ldr	r5, [pc, #20]	; (80011c8 <_write_r+0x20>)
 80011b4:	602a      	str	r2, [r5, #0]
 80011b6:	461a      	mov	r2, r3
 80011b8:	f000 f894 	bl	80012e4 <_write>
 80011bc:	1c43      	adds	r3, r0, #1
 80011be:	d102      	bne.n	80011c6 <_write_r+0x1e>
 80011c0:	682b      	ldr	r3, [r5, #0]
 80011c2:	b103      	cbz	r3, 80011c6 <_write_r+0x1e>
 80011c4:	6023      	str	r3, [r4, #0]
 80011c6:	bd38      	pop	{r3, r4, r5, pc}
 80011c8:	2000007c 	.word	0x2000007c

080011cc <_close_r>:
 80011cc:	b538      	push	{r3, r4, r5, lr}
 80011ce:	2300      	movs	r3, #0
 80011d0:	4d05      	ldr	r5, [pc, #20]	; (80011e8 <_close_r+0x1c>)
 80011d2:	4604      	mov	r4, r0
 80011d4:	4608      	mov	r0, r1
 80011d6:	602b      	str	r3, [r5, #0]
 80011d8:	f000 f84e 	bl	8001278 <_close>
 80011dc:	1c43      	adds	r3, r0, #1
 80011de:	d102      	bne.n	80011e6 <_close_r+0x1a>
 80011e0:	682b      	ldr	r3, [r5, #0]
 80011e2:	b103      	cbz	r3, 80011e6 <_close_r+0x1a>
 80011e4:	6023      	str	r3, [r4, #0]
 80011e6:	bd38      	pop	{r3, r4, r5, pc}
 80011e8:	2000007c 	.word	0x2000007c

080011ec <_fstat_r>:
 80011ec:	b538      	push	{r3, r4, r5, lr}
 80011ee:	2300      	movs	r3, #0
 80011f0:	4d06      	ldr	r5, [pc, #24]	; (800120c <_fstat_r+0x20>)
 80011f2:	4604      	mov	r4, r0
 80011f4:	4608      	mov	r0, r1
 80011f6:	4611      	mov	r1, r2
 80011f8:	602b      	str	r3, [r5, #0]
 80011fa:	f000 f845 	bl	8001288 <_fstat>
 80011fe:	1c43      	adds	r3, r0, #1
 8001200:	d102      	bne.n	8001208 <_fstat_r+0x1c>
 8001202:	682b      	ldr	r3, [r5, #0]
 8001204:	b103      	cbz	r3, 8001208 <_fstat_r+0x1c>
 8001206:	6023      	str	r3, [r4, #0]
 8001208:	bd38      	pop	{r3, r4, r5, pc}
 800120a:	bf00      	nop
 800120c:	2000007c 	.word	0x2000007c

08001210 <_isatty_r>:
 8001210:	b538      	push	{r3, r4, r5, lr}
 8001212:	2300      	movs	r3, #0
 8001214:	4d05      	ldr	r5, [pc, #20]	; (800122c <_isatty_r+0x1c>)
 8001216:	4604      	mov	r4, r0
 8001218:	4608      	mov	r0, r1
 800121a:	602b      	str	r3, [r5, #0]
 800121c:	f000 f83c 	bl	8001298 <_isatty>
 8001220:	1c43      	adds	r3, r0, #1
 8001222:	d102      	bne.n	800122a <_isatty_r+0x1a>
 8001224:	682b      	ldr	r3, [r5, #0]
 8001226:	b103      	cbz	r3, 800122a <_isatty_r+0x1a>
 8001228:	6023      	str	r3, [r4, #0]
 800122a:	bd38      	pop	{r3, r4, r5, pc}
 800122c:	2000007c 	.word	0x2000007c

08001230 <_lseek_r>:
 8001230:	b538      	push	{r3, r4, r5, lr}
 8001232:	4604      	mov	r4, r0
 8001234:	4608      	mov	r0, r1
 8001236:	4611      	mov	r1, r2
 8001238:	2200      	movs	r2, #0
 800123a:	4d05      	ldr	r5, [pc, #20]	; (8001250 <_lseek_r+0x20>)
 800123c:	602a      	str	r2, [r5, #0]
 800123e:	461a      	mov	r2, r3
 8001240:	f000 f832 	bl	80012a8 <_lseek>
 8001244:	1c43      	adds	r3, r0, #1
 8001246:	d102      	bne.n	800124e <_lseek_r+0x1e>
 8001248:	682b      	ldr	r3, [r5, #0]
 800124a:	b103      	cbz	r3, 800124e <_lseek_r+0x1e>
 800124c:	6023      	str	r3, [r4, #0]
 800124e:	bd38      	pop	{r3, r4, r5, pc}
 8001250:	2000007c 	.word	0x2000007c

08001254 <_read_r>:
 8001254:	b538      	push	{r3, r4, r5, lr}
 8001256:	4604      	mov	r4, r0
 8001258:	4608      	mov	r0, r1
 800125a:	4611      	mov	r1, r2
 800125c:	2200      	movs	r2, #0
 800125e:	4d05      	ldr	r5, [pc, #20]	; (8001274 <_read_r+0x20>)
 8001260:	602a      	str	r2, [r5, #0]
 8001262:	461a      	mov	r2, r3
 8001264:	f000 f828 	bl	80012b8 <_read>
 8001268:	1c43      	adds	r3, r0, #1
 800126a:	d102      	bne.n	8001272 <_read_r+0x1e>
 800126c:	682b      	ldr	r3, [r5, #0]
 800126e:	b103      	cbz	r3, 8001272 <_read_r+0x1e>
 8001270:	6023      	str	r3, [r4, #0]
 8001272:	bd38      	pop	{r3, r4, r5, pc}
 8001274:	2000007c 	.word	0x2000007c

08001278 <_close>:
 8001278:	2258      	movs	r2, #88	; 0x58
 800127a:	4b02      	ldr	r3, [pc, #8]	; (8001284 <_close+0xc>)
 800127c:	f04f 30ff 	mov.w	r0, #4294967295	; 0xffffffff
 8001280:	601a      	str	r2, [r3, #0]
 8001282:	4770      	bx	lr
 8001284:	2000007c 	.word	0x2000007c

08001288 <_fstat>:
 8001288:	2258      	movs	r2, #88	; 0x58
 800128a:	4b02      	ldr	r3, [pc, #8]	; (8001294 <_fstat+0xc>)
 800128c:	f04f 30ff 	mov.w	r0, #4294967295	; 0xffffffff
 8001290:	601a      	str	r2, [r3, #0]
 8001292:	4770      	bx	lr
 8001294:	2000007c 	.word	0x2000007c

08001298 <_isatty>:
 8001298:	2258      	movs	r2, #88	; 0x58
 800129a:	4b02      	ldr	r3, [pc, #8]	; (80012a4 <_isatty+0xc>)
 800129c:	2000      	movs	r0, #0
 800129e:	601a      	str	r2, [r3, #0]
 80012a0:	4770      	bx	lr
 80012a2:	bf00      	nop
 80012a4:	2000007c 	.word	0x2000007c

080012a8 <_lseek>:
 80012a8:	2258      	movs	r2, #88	; 0x58
 80012aa:	4b02      	ldr	r3, [pc, #8]	; (80012b4 <_lseek+0xc>)
 80012ac:	f04f 30ff 	mov.w	r0, #4294967295	; 0xffffffff
 80012b0:	601a      	str	r2, [r3, #0]
 80012b2:	4770      	bx	lr
 80012b4:	2000007c 	.word	0x2000007c

080012b8 <_read>:
 80012b8:	2258      	movs	r2, #88	; 0x58
 80012ba:	4b02      	ldr	r3, [pc, #8]	; (80012c4 <_read+0xc>)
 80012bc:	f04f 30ff 	mov.w	r0, #4294967295	; 0xffffffff
 80012c0:	601a      	str	r2, [r3, #0]
 80012c2:	4770      	bx	lr
 80012c4:	2000007c 	.word	0x2000007c

080012c8 <_sbrk>:
 80012c8:	4a04      	ldr	r2, [pc, #16]	; (80012dc <_sbrk+0x14>)
 80012ca:	4905      	ldr	r1, [pc, #20]	; (80012e0 <_sbrk+0x18>)
 80012cc:	6813      	ldr	r3, [r2, #0]
 80012ce:	2b00      	cmp	r3, #0
 80012d0:	bf08      	it	eq
 80012d2:	460b      	moveq	r3, r1
 80012d4:	4418      	add	r0, r3
 80012d6:	6010      	str	r0, [r2, #0]
 80012d8:	4618      	mov	r0, r3
 80012da:	4770      	bx	lr
 80012dc:	20000078 	.word	0x20000078
 80012e0:	20000080 	.word	0x20000080

080012e4 <_write>:
 80012e4:	2258      	movs	r2, #88	; 0x58
 80012e6:	4b02      	ldr	r3, [pc, #8]	; (80012f0 <_write+0xc>)
 80012e8:	f04f 30ff 	mov.w	r0, #4294967295	; 0xffffffff
 80012ec:	601a      	str	r2, [r3, #0]
 80012ee:	4770      	bx	lr
 80012f0:	2000007c 	.word	0x2000007c
 80012f4:	002b7772 	.word	0x002b7772
 80012f8:	65726568 	.word	0x65726568
 80012fc:	61204920 	.word	0x61204920
 8001300:	0000006d 	.word	0x0000006d
 8001304:	08000151 	.word	0x08000151
 8001308:	08000155 	.word	0x08000155
	...

08001314 <_global_impure_ptr>:
 8001314:	20000010                                ... 

08001318 <__sf_fake_stderr>:
	...

08001338 <__sf_fake_stdin>:
	...

08001358 <__sf_fake_stdout>:
	...
